ccollections
OrderedDict
p0
(tRp1
L0L
VUNK_POS
p2
sL1L
VPAD_POS
p3
sL2L
Vv
p4
sL3L
Vx
p5
sL4L
Vn
p6
sL5L
Vr
p7
sL6L
Vd
p8
sL7L
Vuj
p9
sL8L
Vc
p10
sL9L
Vp
p11
sL10L
Vm
p12
sL11L
Vy
p13
sL12L
Vul
p14
sL13L
Vvn
p15
sL14L
Vt
p16
sL15L
Vf
p17
sL16L
Vnr
p18
sL17L
Va
p19
sL18L
Vl
p20
sL19L
Vb
p21
sL20L
Vnz
p22
sL21L
Vq
p23
sL22L
Vns
p24
sL23L
Vad
p25
sL24L
Vzg
p26
sL25L
Vug
p27
sL26L
Veng
p28
sL27L
Van
p29
sL28L
Vu
p30
sL29L
Vj
p31
sL30L
Vs
p32
sL31L
Vud
p33
sL32L
Vtg
p34
sL33L
Vng
p35
sL34L
Vi
p36
sL35L
Vnrt
p37
sL36L
Vnt
p38
sL37L
Vdf
p39
sL38L
Vz
p40
sL39L
Vuz
p41
sL40L
Vmq
p42
sL41L
Vvg
p43
sL42L
Vo
p44
sL43L
Vyg
p45
sL44L
Vh
p46
sL45L
Vrr
p47
sL46L
Ve
p48
sL47L
Vg
p49
sL48L
Vmg
p50
sL49L
Vag
p51
sL50L
Vk
p52
sL51L
Vuv
p53
sL52L
Vvd
p54
sL53L
Vnrfg
p55
sL54L
Vvq
p56
s.