ccollections
OrderedDict
p0
(tRp1
L0L
VUNK
p2
sL1L
VPAD
p3
sL2L
V\u82b1\u5457
p4
sL3L
V\u6211
p5
sL4L
V\u501f\u5457
p6
sL5L
V\u7684
p7
sL6L
V\u4e86
p8
sL7L
V\u5417
p9
sL8L
V\u8fd8
p10
sL9L
V\u600e\u4e48
p11
sL10L
V\u8fd8\u6b3e
p12
sL11L
V\u53ef\u4ee5
p13
sL12L
V\u8682\u8681
p14
sL13L
V\u7528
p15
sL14L
V\u4e3a\u4ec0\u4e48
p16
sL15L
V\u989d\u5ea6
p17
sL16L
V\u662f
p18
sL17L
V\u5206\u671f
p19
sL18L
V\u5f00\u901a
p20
sL19L
V*
p21
sL20L
V\u94b1
p22
sL21L
V\u4e0d\u80fd
p23
sL22L
V\u80fd
p24
sL23L
V\u6ca1\u6709
p25
sL24L
V\u6709
p26
sL25L
V\u4e0d
p27
sL26L
V\u4ec0\u4e48
p28
sL27L
V\u4f7f\u7528
p29
sL28L
V\u5728
p30
sL29L
V\u652f\u4ed8\u5b9d
p31
sL30L
V\u4e0d\u4e86
p32
sL31L
V\u4ed8\u6b3e
p33
sL32L
V\u652f\u4ed8
p34
sL33L
V\u4f1a
p35
sL34L
V\u591a\u5c11
p36
sL35L
V\u6708
p37
sL36L
V\u903e\u671f
p38
sL37L
V\u5230
p39
sL38L
V\u663e\u793a
p40
sL39L
V\u63d0\u524d
p41
sL40L
V\u73b0\u5728
p42
sL41L
V\u540e
p43
sL42L
V\u8981
p44
sL43L
V\u6ca1
p45
sL44L
V\u9000\u6b3e
p46
sL45L
V\u94f6\u884c\u5361
p47
sL46L
V\u65f6\u5019
p48
sL47L
V\u6536\u6b3e
p49
sL48L
V\u81ea\u52a8
p50
sL49L
V\u7533\u8bf7
p51
sL50L
V\u5173\u95ed
p52
sL51L
V\u8fd9\u4e2a
p53
sL52L
V\u548c
p54
sL53L
V\u5982\u4f55
p55
sL54L
V\u501f
p56
sL55L
V\u5df2\u7ecf
p57
sL56L
V\u600e\u4e48\u529e
p58
sL57L
V\u4e00\u4e2a
p59
sL58L
V\u90fd
p60
sL59L
V\u8d26\u5355
p61
sL60L
V\u4e48
p62
sL61L
V\u6dd8\u5b9d
p63
sL62L
V\u5f71\u54cd
p64
sL63L
V\u4e70
p65
sL64L
V\u4e34\u65f6
p66
sL65L
V\u8d26\u53f7
p67
sL66L
V\u8fd8\u6e05
p68
sL67L
V\u5c31
p69
sL68L
V\u8fd8\u662f
p70
sL69L
V\u91cc
p71
sL70L
V\u60f3
p72
sL71L
V\u5229\u606f
p73
sL72L
V\u7ed1\u5b9a
p74
sL73L
V\u53f7
p75
sL74L
V\u4e0a
p76
sL75L
V\u4fe1\u7528\u5361
p77
sL76L
V\u4f59\u989d\u5b9d
p78
sL77L
V\u652f\u6301
p79
sL78L
V\u628a
p80
sL79L
V\u4f46\u662f
p81
sL80L
V\u624b\u7eed\u8d39
p82
sL81L
V\u6263
p83
sL82L
V\u7f51\u5546\u8d37
p84
sL83L
V\u53d6\u6d88
p85
sL84L
V\u5546\u5bb6
p86
sL85L
V\u6263\u6b3e
p87
sL86L
V\u7801
p88
sL87L
V\u7ed9
p89
sL88L
V\u4e2a
p90
sL89L
V\u6536\u94b1
p91
sL90L
V\u5206
p92
sL91L
V\u6062\u590d
p93
sL92L
V\u4e1c\u897f
p94
sL93L
V\u5b8c
p95
sL94L
V\u4f59\u989d
p96
sL95L
V\u9700\u8981
p97
sL96L
V\u600e\u6837
p98
sL97L
V\u6700\u4f4e
p99
sL98L
V\u624b\u673a
p100
sL99L
V\u662f\u4e0d\u662f
p101
sL100L
V\u8fd8\u6b3e\u65e5
p102
sL101L
V\u4e5f
p103
sL102L
V\u8d26\u6237
p104
sL103L
V\u624b\u673a\u53f7
p105
sL104L
V\u54ea\u91cc
p106
sL105L
V\u6d88\u8d39
p107
sL106L
V\u4fe1\u7528
p108
sL107L
V\u624d\u80fd
p109
sL108L
V\u8fd8\u6709
p110
sL109L
V\u591a
p111
sL110L
V\u591a\u4e45
p112
sL111L
V\u51bb\u7ed3
p113
sL112L
V\u53ea\u80fd
p114
sL113L
V\u8d26
p115
sL114L
V\u91d1\u989d
p116
sL115L
V\u9000
p117
sL116L
V\u4e4b\u524d
p118
sL117L
V\u5df2
p119
sL118L
V\u4e0d\u7528
p120
sL119L
V\u4e0d\u662f
p121
sL120L
V\u501f\u6b3e
p122
sL121L
V\u6362
p123
sL122L
V\u91cc\u9762
p124
sL123L
V\u63d0\u5347
p125
sL124L
V\u518d
p126
sL125L
V\u4e00\u6b21
p127
sL126L
V\u6b3e
p128
sL127L
V\u4eca\u5929
p129
sL128L
V\u8bf4
p130
sL129L
V\u88ab
p131
sL130L
V\u561b
p132
sL131L
V\u53e6
p133
sL132L
V\u5f00
p134
sL133L
V\u8bbe\u7f6e
p135
sL134L
V\u671f
p136
sL135L
V\u624d
p137
sL136L
V\u5e2e
p138
sL137L
V\u5206\u671f\u4ed8\u6b3e
p139
sL138L
V\u4ed8
p140
sL139L
V\u6210\u529f
p141
sL140L
V\u8bb0\u5f55
p142
sL141L
V\u8fd8\u8981
p143
sL142L
V\u5982\u679c
p144
sL143L
V\u5143
p145
sL144L
V\u63d0\u793a
p146
sL145L
V\u610f\u601d
p147
sL146L
V\u7b97
p148
sL147L
V\u4ece
p149
sL148L
V\u4ee5\u524d
p150
sL149L
V\u6536
p151
sL150L
V\u8bdd\u8d39
p152
sL151L
V\u63d0\u989d
p153
sL152L
V\u65e0\u6cd5
p154
sL153L
V\u4e00\u5929
p155
sL154L
V\u53bb
p156
sL155L
V\u53c8
p157
sL156L
V\u65f6\u95f4
p158
sL157L
V\u672a
p159
sL158L
V\u600e\u4e48\u56de\u4e8b
p160
sL159L
V\u4e0d\u5230
p161
sL160L
V\u4ea4
p162
sL161L
V\u4e3a\u5565
p163
sL162L
V\u8eab\u4efd\u8bc1
p164
sL163L
V\u8fc7
p165
sL164L
V\u627e
p166
sL165L
V\u4e0d\u4f1a
p167
sL166L
V\u8fd9
p168
sL167L
V\u4e4b\u540e
p169
sL168L
V\u4e0b\u4e2a\u6708
p170
sL169L
V\u65e5\u671f
p171
sL170L
V\u53f7\u7801
p172
sL171L
V\u54ea
p173
sL172L
V\u5440
p174
sL173L
V\u90a3
p175
sL174L
V\u901a\u8fc7
p176
sL175L
V\u79ef\u5206
p177
sL176L
V\u8ba9
p178
sL177L
V\u70b9
p179
sL178L
V\u770b
p180
sL179L
V\u5427
p181
sL180L
V\u4ee5\u540e
p182
sL181L
V\u9000\u56de
p183
sL182L
V\u600e\u4e48\u6837
p184
sL183L
V\u5bf9
p185
sL184L
V\u5145\u503c
p186
sL185L
V\u4e00\u76f4
p187
sL186L
V\u4e00\u6837
p188
sL187L
V\u7535\u8d39
p189
sL188L
V\u514d\u606f
p190
sL189L
V\u6bcf\u4e2a
p191
sL190L
V\u4e00\u4e2a\u6708
p192
sL191L
V\u5230\u671f
p193
sL192L
V\u4f60
p194
sL193L
V\u6bcf\u6708
p195
sL194L
V\u501f\u94b1
p196
sL195L
V\u6539
p197
sL196L
V\u8d2d\u7269
p198
sL197L
V\u6761\u4ef6
p199
sL198L
V\u4f46
p200
sL199L
V\u7ea2\u5305
p201
sL200L
V\u7136\u540e
p202
sL201L
V\u53ea\u6709
p203
sL202L
V\u62bc\u91d1
p204
sL203L
V\u5bc6\u7801
p205
sL204L
V\u662f\u5426
p206
sL205L
V\u5c31\u662f
p207
sL206L
V\u4e8c\u7ef4\u7801
p208
sL207L
V\u9650\u5236
p209
sL208L
V\u624b\u673a\u53f7\u7801
p210
sL209L
V\u81ea\u5df1
p211
sL210L
V\u77ed\u4fe1
p212
sL211L
V\u9650\u989d
p213
sL212L
V\u4e00\u4e0b
p214
sL213L
V\u53ef\u662f
p215
sL214L
V\u6263\u94b1
p216
sL215L
V\u4e3a
p217
sL216L
V\u4e24\u4e2a
p218
sL217L
V\u53ef
p219
sL218L
V\u964d\u4f4e
p220
sL219L
V\u8ddf
p221
sL220L
V\u67e5\u8be2
p222
sL221L
V\u522b\u4eba
p223
sL222L
V\u82b1
p224
sL223L
V\u6388\u6743
p225
sL224L
V\u4e0b
p226
sL225L
V\u4e00\u6b21\u6027
p227
sL226L
V\u77e5\u9053
p228
sL227L
V\u4ea4\u6613
p229
sL228L
V\u5237
p230
sL229L
V\u4e00
p231
sL230L
V\u5546\u54c1
p232
sL231L
V\u5361
p233
sL232L
V\u65f6
p234
sL233L
V\u67e5
p235
sL234L
V\u767b\u5f55
p236
sL235L
V\u4e0d\u591f
p237
sL236L
V\u5145
p238
sL237L
V\u67e5\u770b
p239
sL238L
V\u66f4\u6539
p240
sL239L
V\u63d0\u9192
p241
sL240L
V\u6ca1\u5230
p242
sL241L
V\u91cd\u65b0
p243
sL242L
V\u529f\u80fd
p244
sL243L
V\u4fe1\u606f
p245
sL244L
V\u4fee\u6539
p246
sL245L
V\u63d0\u73b0
p247
sL246L
V\u4e3a\u4f55
p248
sL247L
V\u5220\u9664
p249
sL248L
V\u7ed3\u6e05
p250
sL249L
V\u7cfb\u7edf
p251
sL250L
V\u63d0
p252
sL251L
V\u8fc7\u671f
p253
sL252L
V\u51e0\u53f7
p254
sL253L
V\u53ef\u7528
p255
sL254L
V\u76f4\u63a5
p256
sL255L
V\u8d39\u7528
p257
sL256L
V\u4e0d\u60f3
p258
sL257L
V\u51e0\u5929
p259
sL258L
V\u65b9\u5f0f
p260
sL259L
V\u9a8c\u8bc1\u7801
p261
sL260L
V\u4e3b\u52a8
p262
sL261L
V\u6709\u6ca1\u6709
p263
sL262L
V\u63d0\u9ad8
p264
sL263L
V\u6765
p265
sL264L
V\u8ba2\u5355
p266
sL265L
V\u6536\u5230
p267
sL266L
V\u829d\u9ebb\u4fe1\u7528
p268
sL267L
V\u5457
p269
sL268L
V\u670b\u53cb
p270
sL269L
V\u53ef\u4e0d\u53ef\u4ee5
p271
sL270L
V\u8d2d\u4e70
p272
sL271L
V\u8138
p273
sL272L
V\u4e0e
p274
sL273L
V\u5168\u90e8
p275
sL274L
V\u8d37\u6b3e
p276
sL275L
V\u5f53\u5929
p277
sL276L
V\u8f6c
p278
sL277L
V\u80fd\u7528
p279
sL278L
V\u786e\u8ba4
p280
sL279L
V\u6536\u8d27
p281
sL280L
V\u626b
p282
sL281L
V\u8bc4\u4f30
p283
sL282L
V\u9009\u62e9
p284
sL283L
V\u90a3\u4e48
p285
sL284L
V\u4e0a\u9762
p286
sL285L
V\u9000\u5230
p287
sL286L
V\u5355\u8f66
p288
sL287L
V\u770b\u5230
p289
sL288L
V\u66f4\u6362
p290
sL289L
V\u8fd8\u6b3e\u989d
p291
sL290L
V\u4e2d
p292
sL291L
V\u5f97
p293
sL292L
V\u64cd\u4f5c
p294
sL293L
V\u5929
p295
sL294L
V\u5151\u6362
p296
sL295L
V\u6700
p297
sL296L
V\u9000\u8d27
p298
sL297L
V\u9a8c\u8bc1
p299
sL298L
V\u521a
p300
sL299L
V\u5374
p301
sL300L
V\u5b89\u5168
p302
sL301L
V\u53ea
p303
sL302L
V\u665a
p304
sL303L
V\u6ce8\u9500
p305
sL304L
V\u6ca1\u7528
p306
sL305L
V\u5ba1\u6838
p307
sL306L
V\u5173
p308
sL307L
V\u6b20\u6b3e
p309
sL308L
V\u8c03\u6574
p310
sL309L
V\u521a\u521a
p311
sL310L
V\u597d
p312
sL311L
V\u6700\u9ad8
p313
sL312L
V\u53e6\u5916
p314
sL313L
V\u98ce\u9669
p315
sL314L
V\u548b
p316
sL315L
V\u65e5
p317
sL316L
V\u626b\u7801
p318
sL317L
V\u6263\u9664
p319
sL318L
V\u706b\u8f66\u7968
p320
sL319L
V\u7f8e\u56e2
p321
sL320L
V\u6709\u94b1
p322
sL321L
V\u5148
p323
sL322L
V\u5e10\u53f7
p324
sL323L
V\u5931\u8d25
p325
sL324L
V\u6628\u5929
p326
sL325L
V\u53d8
p327
sL326L
V\u95ee
p328
sL327L
V\u5ea6
p329
sL328L
V\u7ee7\u7eed
p330
sL329L
V\u671f\u9650
p331
sL330L
V\u8fd9\u4e48
p332
sL331L
V\u51e0\u4e2a
p333
sL332L
V\u65b0
p334
sL333L
V\u7ebf\u4e0b
p335
sL334L
V\u6b20
p336
sL335L
V\u8d85\u5e02
p337
sL336L
V\u5fd8\u8bb0
p338
sL337L
V\u539f\u56e0
p339
sL338L
V\u8ba4\u8bc1
p340
sL339L
V\u8fdb\u53bb
p341
sL340L
V\u5fae\u4fe1
p342
sL341L
V\u53cc
p343
sL342L
V\u5356\u5bb6
p344
sL343L
V\u7b26\u5408
p345
sL344L
V\u4e0a\u4e2a\u6708
p346
sL345L
V\u8d1f
p347
sL346L
V\u5b58\u5728
p348
sL347L
V\u4ea7\u751f
p349
sL348L
V\u5c11
p350
sL349L
V\u653e\u6b3e
p351
sL350L
V\u60c5\u51b5
p352
sL351L
V\u518d\u6b21
p353
sL352L
V\u4ed6
p354
sL353L
V\u95ee\u9898
p355
sL354L
V\u521a\u624d
p356
sL355L
V\u53d8\u6210
p357
sL356L
V\u9875\u9762
p358
sL357L
V\u4e0d\u884c
p359
sL358L
V\u8fd4\u73b0
p360
sL359L
V\u9ad8
p361
sL360L
V\u8be5
p362
sL361L
V\u7684\u8bdd
p363
sL362L
V\u516d\u4e2a\u6708
p364
sL363L
V\u6ef4\u6ef4
p365
sL364L
V\u4eba
p366
sL365L
V\u89e3\u9664
p367
sL366L
V\u4e0d\u8db3
p368
sL367L
V\u53cc\u5341
p369
sL368L
V\u4e00\u7b14
p370
sL369L
V\u8bf7
p371
sL370L
V\u829d\u9ebb
p372
sL371L
V\u6536\u4e0d\u5230
p373
sL372L
V\u6253\u5f00
p374
sL373L
V\u51fa\u6765
p375
sL374L
V\u6d3b\u52a8
p376
sL375L
V\u6309
p377
sL376L
V\u5f00\u82b1
p378
sL377L
V\u4e00\u671f
p379
sL378L
V\u5238
p380
sL379L
V\u900f\u652f
p381
sL380L
V\u5f53\u6708
p382
sL381L
V\u5e97\u94fa
p383
sL382L
V\u51fa
p384
sL383L
V\u5566
p385
sL384L
V\u524d
p386
sL385L
V\u5bc6\u4ed8
p387
sL386L
V\u5176\u4ed6
p388
sL387L
V\u5207\u6362
p389
sL388L
V\u5173\u4e86
p390
sL389L
V\u4e0d\u89c1
p391
sL390L
V\u670d\u52a1\u8d39
p392
sL391L
V\u4e00\u8d77
p393
sL392L
V\u9080\u8bf7
p394
sL393L
V\u7535\u8111
p395
sL394L
V\u5fc5\u987b
p396
sL395L
V\u4ee3\u4ed8
p397
sL396L
V\u54ea\u4e9b
p398
sL397L
V\u600e\u4e48\u5f04
p399
sL398L
V\u539f\u6765
p400
sL399L
V\u6700\u540e
p401
sL400L
V\u6b63\u5e38
p402
sL401L
V\u4e0d\u8981
p403
sL402L
V\u901a\u77e5
p404
sL403L
V\u5173\u6389
p405
sL404L
V\u4e00\u5e74
p406
sL405L
V\u5173\u7cfb
p407
sL406L
V\u505a
p408
sL407L
V\u9886
p409
sL408L
V\u670d\u52a1
p410
sL409L
V\u4f4e
p411
sL410L
V\u5347\u7ea7
p412
sL411L
V\u8f6c\u5230
p413
sL412L
V\u80fd\u5426
p414
sL413L
V\u8001
p415
sL414L
V\u94f6\u884c
p416
sL415L
V\u4f60\u4eec
p417
sL416L
V\u5929\u732b
p418
sL417L
V\u51fa\u73b0
p419
sL418L
V\u62bd\u5956
p420
sL419L
V\u8d85\u8fc7
p421
sL420L
V\u9886\u53d6
p422
sL421L
V\u7f34\u8d39
p423
sL422L
V\u51fa\u8d26
p424
sL423L
V\u6d25\u8d34
p425
sL424L
V\u63a8\u8fdf
p426
sL425L
V\u533a\u522b
p427
sL426L
V\u4e24\u6b21
p428
sL427L
V\u4eba\u8138\u8bc6\u522b
p429
sL428L
V\u5ba2\u6237
p430
sL429L
V\u591a\u957f\u65f6\u95f4
p431
sL430L
V\u6ee1\u8db3
p432
sL431L
V\u8d1f\u9762
p433
sL432L
V\u7a81\u7136
p434
sL433L
V\u7e41\u5fd9
p435
sL434L
V\u672c\u6708
p436
sL435L
V\u5f00\u59cb
p437
sL436L
V\u660e\u7ec6
p438
sL437L
V\u51e0\u6b21
p439
sL438L
V\u6ce8\u518c
p440
sL439L
V\u6263\u8d39
p441
sL440L
V\u5546\u6237
p442
sL441L
V\u901a\u8baf\u5f55
p443
sL442L
V\u5ef6\u671f
p444
sL443L
V\u89e3\u51bb
p445
sL444L
V\u8bc1\u660e
p446
sL445L
V\u6309\u65f6
p447
sL446L
V\u603b\u989d
p448
sL447L
V\u60a8
p449
sL448L
V\u90a3\u91cc
p450
sL449L
V\u597d\u53cb
p451
sL450L
V\u7ed1
p452
sL451L
V\u6ca1\u6536
p453
sL452L
V\u5171\u4eab
p454
sL453L
V\u522b\u7684
p455
sL454L
V\u4e0b\u6708
p456
sL455L
V\u767b\u9646
p457
sL456L
V\u53eb
p458
sL457L
V\u5b66\u5386
p459
sL458L
V\u51e0\u70b9
p460
sL459L
V\u505c\u7528
p461
sL460L
V\u56e0\u4e3a
p462
sL461L
V\u6536\u53d6
p463
sL462L
V\u53e3\u7891
p464
sL463L
V\u660e\u5929
p465
sL464L
V\u8d1f\u6570
p466
sL465L
V\u6708\u4efd
p467
sL466L
V\u7f51\u5546\u94f6\u884c
p468
sL467L
V\u5f00\u542f
p469
sL468L
V\u8ba1\u7b97
p470
sL469L
V\u5c0f\u5fc3
p471
sL470L
V\u6536\u8d39
p472
sL471L
V\u5e10
p473
sL472L
V\u4fe1\u8a89
p474
sL473L
V\u5168\u989d
p475
sL474L
V\u540c\u65f6
p476
sL475L
V\u4e70\u5bb6
p477
sL476L
V\u6b21
p478
sL477L
V\u5e94\u8be5
p479
sL478L
V\u9884\u671f
p480
sL479L
V\u51e0\u671f
p481
sL480L
V\u964d
p482
sL481L
V\u5904\u7406
p483
sL482L
V\u6389
p484
sL483L
V\u624b\u52a8
p485
sL484L
V\u5e97
p486
sL485L
V\u4ee5
p487
sL486L
V\u5e10\u5355
p488
sL487L
V\u6253\u8f66
p489
sL488L
V\u5c06
p490
sL489L
V\u5c3d\u60c5
p491
sL490L
V\u89e3\u7ed1
p492
sL491L
V\u529e\u6cd5
p493
sL492L
V\u6bcf\u5929
p494
sL493L
V\u4e24\u5929
p495
sL494L
V\u4e70\u624b\u673a
p496
sL495L
V\u4e00\u90e8\u5206
p497
sL496L
V\u6240\u6709
p498
sL497L
V\u8863\u670d
p499
sL498L
V\u5b83
p500
sL499L
V\u7b2c\u4e00\u6b21
p501
sL500L
V\u91cd\u590d
p502
sL501L
V\u5b9e\u4f53\u5e97
p503
sL502L
V\u8f6c\u5165
p504
sL503L
V\u5361\u91cc
p505
sL504L
V\u6210
p506
sL505L
V\u5e94
p507
sL506L
V\u60f3\u7528
p508
sL507L
V\u66f4\u65b0
p509
sL508L
V\u5269\u4e0b
p510
sL509L
V\u5ef6\u8fdf
p511
sL510L
V\u5269\u4f59
p512
sL511L
V\u5fd8
p513
sL512L
V\u6da8
p514
sL513L
V\u4e5d\u53f7
p515
sL514L
V\u6682\u65f6
p516
sL515L
V\u9000\u51fa
p517
sL516L
V\u660e\u660e
p518
sL517L
V\u54ea\u4e2a
p519
sL518L
V\u5916\u5356
p520
sL519L
V\u4e00\u534a
p521
sL520L
V\u505c
p522
sL521L
V\u6253\u4e0d\u5f00
p523
sL522L
V\u6bcf\u6b21
p524
sL523L
V\u6bd4
p525
sL524L
V\u8fd8\u6b3e\u671f
p526
sL525L
V\u8fd9\u7b14
p527
sL526L
V\u4e0d\u53ef
p528
sL527L
V\u5b9e\u540d
p529
sL528L
V\u4e09\u4e2a
p530
sL529L
V\u7535\u8bdd
p531
sL530L
V\u9a6c\u4e0a
p532
sL531L
V\u8425\u4e1a\u6267\u7167
p533
sL532L
V\u4f1a\u5458
p534
sL533L
V\u4e86\u80fd
p535
sL534L
V\u673a\u7968
p536
sL535L
V\u592a
p537
sL536L
V\u4e00\u822c
p538
sL537L
V\u672c\u91d1
p539
sL538L
V\u627e\u5230
p540
sL539L
V\u6709\u4e2a
p541
sL540L
V\u987e\u5ba2
p542
sL541L
V\u90e8\u5206
p543
sL542L
V\u9000\u56de\u6765
p544
sL543L
V\u60f3\u8981
p545
sL544L
V\u4e0a\u4f20
p546
sL545L
V\u5883\u5916
p547
sL546L
V\u5b8c\u5584
p548
sL547L
V\u989d
p549
sL548L
V\u8d39
p550
sL549L
V\u7528\u4e8e
p551
sL550L
V\u5ba2\u670d
p552
sL551L
V\u600e\u6837\u624d\u80fd
p553
sL552L
V\u6700\u591a
p554
sL553L
V\u5173\u8054
p555
sL554L
V\u8d44\u6599
p556
sL555L
V\u529e
p557
sL556L
V\u4e07
p558
sL557L
V\u53d1
p559
sL558L
V\u603b
p560
sL559L
V\u8981\u6c42
p561
sL560L
V\u5565
p562
sL561L
V\u600e
p563
sL562L
V\u603b\u662f
p564
sL563L
V\u8f6c\u8d26
p565
sL564L
V\u6d41\u91cf
p566
sL565L
V\u6216\u8005
p567
sL566L
V\u770b\u4e0d\u5230
p568
sL567L
V\u90ae\u7bb1
p569
sL568L
V\u5411
p570
sL569L
V\u5341\u4e8c
p571
sL570L
V\u5165\u53e3
p572
sL571L
V\u6c38\u4e45
p573
sL572L
V\u4e2a\u4eba
p574
sL573L
V\u4fe1\u7528\u5ea6
p575
sL574L
V\u6e38\u620f
p576
sL575L
V\u6362\u6210
p577
sL576L
V\u6469\u62dc
p578
sL577L
V\u662f\u4ece
p579
sL578L
V\u8fdb\u884c
p580
sL579L
V\u96f6\u65f6
p581
sL580L
V\u9152\u5e97
p582
sL581L
V\u5b8c\u6b3e
p583
sL582L
V\u8c03
p584
sL583L
V\u6539\u6210
p585
sL584L
V\u4ed8\u94b1
p586
sL585L
V\u770b\u770b
p587
sL586L
V\u6216
p588
sL587L
V\u5229\u7387
p589
sL588L
V\u672c\u4eba
p590
sL589L
V\u51b2
p591
sL590L
V\u8fd9\u6837
p592
sL591L
V\u4ee3\u6263
p593
sL592L
V\u52a0\u6cb9
p594
sL593L
V\u5e74
p595
sL594L
V\u5355
p596
sL595L
V\u8fd8\u4e48
p597
sL596L
V\u5f53\u524d
p598
sL597L
V\u5757\u94b1
p599
sL598L
V\u56de
p600
sL599L
V\u8f93\u5165
p601
sL600L
V\u82b1\u8d1d
p602
sL601L
V\u5c0f
p603
sL602L
V\u5bf9\u65b9
p604
sL603L
V\u5565\u65f6\u5019
p605
sL604L
V\u9009\u9879
p606
sL605L
V\u73b0\u91d1
p607
sL606L
V\u51cf
p608
sL607L
V\u4f53\u9a8c
p609
sL608L
V\u5377
p610
sL609L
V\u6700\u957f
p611
sL610L
V\u70b9\u51fb
p612
sL611L
V\u514d\u8d39
p613
sL612L
V\u4e00\u5b9a
p614
sL613L
V\u540c\u4e00\u4e2a
p615
sL614L
V\u5504
p616
sL615L
V\u4e0d\u8ba9
p617
sL616L
V\u5e10\u6237
p618
sL617L
V\u7b7e\u7ea6
p619
sL618L
V\u6309\u671f
p620
sL619L
V\u6682
p621
sL620L
V\u4e0a\u4e70
p622
sL621L
V\u672c
p623
sL622L
V\u56fa\u5b9a
p624
sL623L
V\u751f\u6d3b
p625
sL624L
V\u591f
p626
sL625L
V\u5f88
p627
sL626L
V\u5757
p628
sL627L
V\u5c0f\u65f6
p629
sL628L
V\u5f04
p630
sL629L
V\u56de\u6765
p631
sL630L
V\u9519
p632
sL631L
V\u9001
p633
sL632L
V\u4e0d\u540c
p634
sL633L
V\u8fd0\u8d39
p635
sL634L
V\u5f53\u9762
p636
sL635L
V\u53f7\u7528
p637
sL636L
V\u4e22
p638
sL637L
V\u9009
p639
sL638L
V\u800c\u4e14
p640
sL639L
V\u6211\u7528
p641
sL640L
V\u516d\u671f
p642
sL641L
V\u5168\u6b3e
p643
sL642L
V\u6211\u4eec
p644
sL643L
V\u4e0d\u597d
p645
sL644L
V\u6240\u4ee5
p646
sL645L
V\u5c01
p647
sL646L
V\u4e0a\u7528
p648
sL647L
V\u4e09\u671f
p649
sL648L
V\u6b21\u6570
p650
sL649L
V\u6d88\u9664
p651
sL650L
V\u4f1a\u6263
p652
sL651L
V\u6743\u9650
p653
sL652L
V\u514d
p654
sL653L
V\u8eab\u4efd
p655
sL654L
V\u800c
p656
sL655L
V\u8fd9\u8fb9
p657
sL656L
V\u7f51\u4e0a
p658
sL657L
V\u4e00\u4e07
p659
sL658L
V\u7528\u6765
p660
sL659L
V\u6c34\u7535\u8d39
p661
sL660L
V\u5e76
p662
sL661L
V\u665a\u4e0a
p663
sL662L
V\u540e\u6765
p664
sL663L
V\u516c\u79ef\u91d1
p665
sL664L
V\u62ff
p666
sL665L
V\u8fdf
p667
sL666L
V\u4f18\u5148
p668
sL667L
V\u62bd
p669
sL668L
V\u4ea7\u54c1
p670
sL669L
V\u8c03\u4f4e
p671
sL670L
V\u7b49
p672
sL671L
V\u9000\u8fd8
p673
sL672L
V\u987a\u5e8f
p674
sL673L
V\u5347
p675
sL674L
V\u6ca1\u6cd5
p676
sL675L
V\u7528\u6237
p677
sL676L
V\u7ecf\u5e38
p678
sL677L
V\u51cf\u5c11
p679
sL678L
V\u4e0a\u6b21
p680
sL679L
V\u5feb
p681
sL680L
V\u4f18\u60e0\u5238
p682
sL681L
V\u8d44\u683c
p683
sL682L
V\u884c
p684
sL683L
V\u5e2e\u5fd9
p685
sL684L
V\u54a8\u8be2
p686
sL685L
V\u8fdb
p687
sL686L
V\u9664\u4e86
p688
sL687L
V\u540e\u9762
p689
sL688L
V\u6700\u8fdf
p690
sL689L
V\u548b\u529e
p691
sL690L
V\u5c65\u7ea6
p692
sL691L
V\u8d27
p693
sL692L
V\u54ea\u513f
p694
sL693L
V\u6253
p695
sL694L
V\u4e00\u5171
p696
sL695L
V\u8fbe\u5230
p697
sL696L
V\u597d\u4e45
p698
sL697L
V\u4f18\u60e0
p699
sL698L
V\u5148\u606f
p700
sL699L
V\u501f\u51fa\u6765
p701
sL700L
V\u8bb0\u5f97
p702
sL701L
V\u4e00\u81f4
p703
sL702L
V\u9996\u9009
p704
sL703L
V\u90a3\u4e9b
p705
sL704L
V\u5dee
p706
sL705L
V\u957f
p707
sL706L
V\u6ca1\u94b1
p708
sL707L
V\u529e\u7406
p709
sL708L
V\u4e00\u5f20
p710
sL709L
V\u589e\u52a0
p711
sL710L
V\u5185
p712
sL711L
V\u8fdb\u5165
p713
sL712L
V\u4e45
p714
sL713L
V\u4e00\u70b9
p715
sL714L
V\u8981\u662f
p716
sL715L
V\u5730\u65b9
p717
sL716L
V\u4eba\u5de5
p718
sL717L
V\u9ebb\u70e6
p719
sL718L
V\u8fd8\u4e0a
p720
sL719L
V\u80fd\u5206
p721
sL720L
V\u8fd9\u91cc
p722
sL721L
V\u5168
p723
sL722L
V\u7f34
p724
sL723L
V\u9884\u7559
p725
sL724L
V\u7b2c\u4e00\u671f
p726
sL725L
V\u6ca1\u4e86
p727
sL726L
V\u5546\u5e97
p728
sL727L
V\u65e0
p729
sL728L
V\u9669
p730
sL729L
V\u8fdb\u4e0d\u53bb
p731
sL730L
V\u4e0a\u53bb
p732
sL731L
V\u6d88\u5931
p733
sL732L
V\u5f53\u65f6
p734
sL733L
V\u8f6c\u79fb
p735
sL734L
V\u8c22\u8c22
p736
sL735L
V\u9690\u85cf
p737
sL736L
V\u5b9d
p738
sL737L
V\u786e\u5b9a
p739
sL738L
V\u5355\u7b14
p740
sL739L
V\u82f9\u679c
p741
sL740L
V\u597d\u5904
p742
sL741L
V\u7740
p743
sL742L
V\u5b8c\u6210
p744
sL743L
V\u586b
p745
sL744L
V\u754c\u9762
p746
sL745L
V\u6b3e\u9879
p747
sL746L
V\u5ef6\u957f
p748
sL747L
V\u5e72\u561b
p749
sL748L
V\u7b97\u4e0d\u7b97
p750
sL749L
V\u53ef\u80fd
p751
sL750L
V\u8d85\u51fa
p752
sL751L
V\u9000\u7968
p753
sL752L
V\u79df
p754
sL753L
V\u4e00\u53f7
p755
sL754L
V\u50a8\u84c4\u5361
p756
sL755L
V\u4e86\u4f1a
p757
sL756L
V\u5c3e\u6b3e
p758
sL757L
V\u4e00\u5206\u94b1
p759
sL758L
V\u5927
p760
sL759L
V\u6ee1
p761
sL760L
V\u67e5\u4e0d\u5230
p762
sL761L
V\u5b9e\u9645
p763
sL762L
V\u4e0d\u8d77
p764
sL763L
V\u586b\u5199
p765
sL764L
V\u6700\u8fd1
p766
sL765L
Va
p767
sL766L
V\u4e09\u5929
p768
sL767L
V\u8d85
p769
sL768L
V\u53ea\u8981
p770
sL769L
V\u76d2\u5b50
p771
sL770L
V\u8fd8\u7ed9
p772
sL771L
V\u62b5\u6263
p773
sL772L
V\u4e0d\u4e0a
p774
sL773L
V\u56de\u4e8b
p775
sL774L
V\u5bfc\u81f4
p776
sL775L
V\u641e
p777
sL776L
V\u4f4f
p778
sL777L
V\u8bc6\u522b
p779
sL778L
V\u64a4\u9500
p780
sL779L
V\u8fd9\u4e48\u4e45
p781
sL780L
V\u8fd9\u6b21
p782
sL781L
V\u63d0\u4ea4
p783
sL782L
V\u7b14
p784
sL783L
V\u5df1
p785
sL784L
V\u597d\u50cf
p786
sL785L
V\u997f
p787
sL786L
V\u7b2c\u4e00\u4e2a
p788
sL787L
V\u80fd\u591f
p789
sL788L
V\u534a\u5e74
p790
sL789L
V\u53ef\u5426
p791
sL790L
V\u8bbf\u95ee
p792
sL791L
V\u4e86\u6b3e
p793
sL792L
V\u514d\u5355
p794
sL793L
V\u56de\u590d
p795
sL794L
V\u89e3\u51b3
p796
sL795L
V\u5b9a
p797
sL796L
V\u7f51
p798
sL797L
V\u670d\u52a1\u5546
p799
sL798L
V\u8054\u7cfb
p800
sL799L
V\u6dfb\u52a0
p801
sL800L
V\u672c\u6765
p802
sL801L
V\u4e2d\u5348
p803
sL802L
Vapp
p804
sL803L
V\u8d44\u91d1
p805
sL804L
V\u7ed3\u679c
p806
sL805L
V\u90ae\u653f\u50a8\u84c4\u94f6\u884c
p807
sL806L
V\u501f\u4e86
p808
sL807L
V\u623f\u8d37
p809
sL808L
V\u8fd8\u94b1
p810
sL809L
V\u4e0a\u9650
p811
sL810L
V\u65e5\u5229\u7387
p812
sL811L
V\u5e01
p813
sL812L
V\u9700
p814
sL813L
V\u5468\u671f
p815
sL814L
V\u5341\u53f7
p816
sL815L
V\u8c01
p817
sL816L
V\u52a0
p818
sL817L
V\u90ae\u653f
p819
sL818L
V\u8d37
p820
sL819L
V\u968f\u65f6
p821
sL820L
V\u793c\u5305
p822
sL821L
V\u964d\u989d
p823
sL822L
V\u5341\u4e8c\u4e2a
p824
sL823L
V\u771f\u7684
p825
sL824L
V\u4e0d\u53d8
p826
sL825L
V\u4e00\u5343
p827
sL826L
V\u77ed\u671f
p828
sL827L
V\u95e8\u5e97
p829
sL828L
V\u7b26\u5408\u6761\u4ef6
p830
sL829L
V\u4e86\u8981
p831
sL830L
V\u5177\u4f53
p832
sL831L
V\u90ae\u653f\u50a8\u84c4
p833
sL832L
V\u6ca1\u7528\u8fc7
p834
sL833L
V\u4ed8\u6e05
p835
sL834L
V\u7801\u80fd
p836
sL835L
V\u7ffb\u500d
p837
sL836L
V\u673a\u4f1a
p838
sL837L
V\u63d0\u5230
p839
sL838L
V\u4e0b\u964d
p840
sL839L
V\u8d2d
p841
sL840L
V\u4ec0\u4e48\u6837
p842
sL841L
V\u540d\u4e0b
p843
sL842L
V\u5176\u5b83
p844
sL843L
V\u6709\u5173
p845
sL844L
V\u5565\u610f\u601d
p846
sL845L
V\u5fae\u8d37
p847
sL846L
V\u5145\u9519
p848
sL847L
V\u8fc7\u540e
p849
sL848L
V\u6570
p850
sL849L
V\u5927\u4e8e
p851
sL850L
V\u5ba2\u4eba
p852
sL851L
V\u5956\u52b1\u91d1
p853
sL852L
V\u5927\u6982
p854
sL853L
V\u53ea\u662f
p855
sL854L
Vq
p856
sL855L
V\u5c31\u8981
p857
sL856L
V\u8f66\u7968
p858
sL857L
V\u4f7f
p859
sL858L
V\u89e3
p860
sL859L
V\u6700\u5927
p861
sL860L
V\u53d1\u77ed\u4fe1
p862
sL861L
V\u67e5\u4e0b
p863
sL862L
V\u6bcf\u671f
p864
sL863L
V\u65e7
p865
sL864L
V\u6708\u5e95
p866
sL865L
V\u5927\u989d
p867
sL866L
V\u6628\u665a
p868
sL867L
V\u8f6f\u4ef6
p869
sL868L
V\u4e0d\u7b26
p870
sL869L
V\u4e00\u6708
p871
sL870L
V\u8fd4\u56de
p872
sL871L
V\u53ca\u65f6
p873
sL872L
Vb
p874
sL873L
Vpass
p875
sL874L
V\u4f55\u65f6
p876
sL875L
V\u4eba\u8138
p877
sL876L
V\u5230\u5e95
p878
sL877L
V\u9ebd
p879
sL878L
V\u8fd8\u7528
p880
sL879L
V\u6fc0\u6d3b
p881
sL880L
V\u8ba2
p882
sL881L
V\u6bd4\u5982
p883
sL882L
V\u53d8\u5316
p884
sL883L
V\u4eac\u4e1c
p885
sL884L
V-
p886
sL885L
V\u627e\u56de
p887
sL886L
V\u7f34\u7eb3
p888
sL887L
V\u6682\u505c
p889
sL888L
V\u6539\u4e3a
p890
sL889L
V\u76ee\u524d
p891
sL890L
V\u6709\u6548\u671f
p892
sL891L
V\u7acb\u5373
p893
sL892L
V\u6362\u6b3e
p894
sL893L
V\u4e86\u7528
p895
sL894L
V\u5408\u5e76
p896
sL895L
V\u7b2c\u4e8c\u4e2a
p897
sL896L
V\u671f\u95f4
p898
sL897L
V\u5176\u4e2d
p899
sL898L
V\u7269\u54c1
p900
sL899L
V\u6709\u4e9b
p901
sL900L
V\u5e97\u5bb6
p902
sL901L
V\u6307
p903
sL902L
V\u6700\u5c11
p904
sL903L
V\u4e0a\u6708
p905
sL904L
V\u52b5
p906
sL905L
V\u957f\u65f6\u95f4
p907
sL906L
V\u4e1a\u52a1
p908
sL907L
V\u7aef
p909
sL908L
V\u82b1\u8d39
p910
sL909L
V\u5141\u8bb8
p911
sL910L
Vqq
p912
sL911L
V\u83b7\u5f97
p913
sL912L
V\u89e3\u5f00
p914
sL913L
V\u6b20\u8d39
p915
sL914L
V\u5199
p916
sL915L
V\u6539\u53d8
p917
sL916L
V\u7f51\u8d37
p918
sL917L
V\u540c\u4e00
p919
sL918L
V\u4ec0
p920
sL919L
V\u662f\u7528
p921
sL920L
V\u5e94\u7528
p922
sL921L
V\u52a0\u6cb9\u7ad9
p923
sL922L
V\u89c4\u5b9a
p924
sL923L
V\u8fdb\u5ea6
p925
sL924L
V\u9ec4\u8f66
p926
sL925L
V\u70b9\u9519
p927
sL926L
V\u4ee3
p928
sL927L
V\u4e2d\u65ad
p929
sL928L
V\u767b
p930
sL929L
V\u5269
p931
sL930L
V\u67e5\u5230
p932
sL931L
V\u66f4
p933
sL932L
V\u6447
p934
sL933L
V\u4e8b
p935
sL934L
V\u5220\u6389
p936
sL935L
V\u586b\u9519
p937
sL936L
V\u9ed8\u8ba4
p938
sL937L
V\u5ef6\u540e
p939
sL938L
V\u7b2c\u4e8c\u6b21
p940
sL939L
V\u7b49\u989d
p941
sL940L
V\u4e86\u89e3
p942
sL941L
V\u8fde\u7eed
p943
sL942L
V\u6b20\u94b1
p944
sL943L
V\u8fd8\u8d26
p945
sL944L
V\u80fd\u6362
p946
sL945L
V\u80fd\u5230
p947
sL946L
V\u8d85\u989d
p948
sL947L
V\u603b\u5171
p949
sL948L
V\u4e0d\u6210
p950
sL949L
V\u653e\u5728
p951
sL950L
V\u4e24\u7b14
p952
sL951L
V\u4efb\u4f55
p953
sL952L
V\u6d88\u606f
p954
sL953L
V\u514d\u5bc6
p955
sL954L
V\u8f66
p956
sL955L
V\u8fd4
p957
sL956L
V\u5f53\u65e5
p958
sL957L
V\u6295\u8bc9
p959
sL958L
V\u9996\u6b21
p960
sL959L
V\u7f51\u5546
p961
sL960L
V\u8fdd\u7ea6
p962
sL961L
V\u5f88\u591a
p963
sL962L
V\u4eba\u5bb6
p964
sL963L
V\u9519\u8bef
p965
sL964L
V\u90a3\u5929
p966
sL965L
V\u73a9
p967
sL966L
V\u6e05
p968
sL967L
V\u4e86\u6709
p969
sL968L
V\u4fe1\u8a89\u5ea6
p970
sL969L
V\u5c0f\u84dd
p971
sL970L
V\u6210\u4e3a
p972
sL971L
V\u4e0d\u826f
p973
sL972L
V\u4ed6\u4eba
p974
sL973L
V\u7535\u8bdd\u53f7\u7801
p975
sL974L
V\u54ea\u91cc\u627e
p976
sL975L
V\u5e97\u91cc
p977
sL976L
V\u91cc\u8fb9
p978
sL977L
V\u4f59\u5229
p979
sL978L
V\u8f6c\u6362
p980
sL979L
V\u8d77\u6765
p981
sL980L
V\u4f01\u4e1a
p982
sL981L
V\u591a\u4e2a
p983
sL982L
V\u67e5\u67e5
p984
sL983L
V\u6e05\u9664
p985
sL984L
V\u5c5e\u4e8e
p986
sL985L
V\u53d1\u8d27
p987
sL986L
V\u4e94\u767e
p988
sL987L
V\u5e38\u7528
p989
sL988L
V\u770b\u4e0b
p990
sL989L
V\u94f6\u884c\u8d37\u6b3e
p991
sL990L
V\u5165\u8d26
p992
sL991L
V\u95ee\u95ee
p993
sL992L
V\u56de\u5230
p994
sL993L
V\u8fdd\u7ea6\u91d1
p995
sL994L
V\u770b\u89c1
p996
sL995L
V\u54c8\u7f57
p997
sL996L
V\u5982
p998
sL997L
V\u50cf
p999
sL998L
V\u4e0b\u8f7d
p1000
sL999L
V\u4e00\u767e
p1001
sL1000L
V\u7684\u4e48
p1002
sL1001L
V\u4efb\u52a1
p1003
sL1002L
V\u4ea4\u8d39
p1004
sL1003L
V\u501f\u5b8c
p1005
sL1004L
V\u8bd5
p1006
sL1005L
V\u6807\u8bc6
p1007
sL1006L
V\u8bd5\u7528
p1008
sL1007L
V\u81f3
p1009
sL1008L
V\u4e0d\u7b97
p1010
sL1009L
V\u88ab\u6263
p1011
sL1010L
V\u6ca1\u6cd5\u7528
p1012
sL1011L
V\u8d27\u6b3e
p1013
sL1012L
V\u4e00\u4ef6
p1014
sL1013L
V\u5feb\u901f
p1015
sL1014L
V\u9000\u7ed9
p1016
sL1015L
V\u540c\u610f
p1017
sL1016L
V\u6bcf
p1018
sL1017L
V\u4ee5\u4e0a
p1019
sL1018L
V\u5f97\u5230
p1020
sL1019L
V\u6ca1\u4ec0\u4e48
p1021
sL1020L
V\u4e0b\u6b21
p1022
sL1021L
V\u626b\u63cf
p1023
sL1022L
V\u82b1\u94b1
p1024
sL1023L
V\u544a\u8bc9
p1025
sL1024L
V\u662f\u56e0\u4e3a
p1026
sL1025L
V\u5f00\u5177
p1027
sL1026L
V\u4e0b\u5348
p1028
sL1027L
V\u53d1\u751f
p1029
sL1028L
V\u4e0d\u8fc7
p1030
sL1029L
V\u6062\u590d\u6b63\u5e38
p1031
sL1030L
V\u53d8\u66f4
p1032
sL1031L
V\u4e0d\u7ba1
p1033
sL1032L
V\u7efc\u5408
p1034
sL1033L
V\u767b\u4e0d\u4e0a
p1035
sL1034L
V\u5546\u573a
p1036
sL1035L
V\u8d39\u7387
p1037
sL1036L
V\u8d70
p1038
sL1037L
V\u957f\u671f
p1039
sL1038L
V\u51fa\u884c
p1040
sL1039L
V\u501f\u8d1d
p1041
sL1040L
V\u7ed3\u7b97
p1042
sL1041L
V\u90a6
p1043
sL1042L
V\u4ef7\u683c
p1044
sL1043L
V\u5bc6
p1045
sL1044L
V\u597d\u591a
p1046
sL1045L
V\u5305\u62ec
p1047
sL1046L
V\u7269\u6d41
p1048
sL1047L
V\u591a\u6b21
p1049
sL1048L
V\u5bbd\u5e26
p1050
sL1049L
V\u54ea\u5929
p1051
sL1050L
V\u751f\u6210
p1052
sL1051L
V\u519c\u6751
p1053
sL1052L
V\u61c2
p1054
sL1053L
V\u5faa\u73af
p1055
sL1054L
V\u4ece\u6765
p1056
sL1055L
V\u5360\u7528
p1057
sL1056L
V\u62a5\u540d
p1058
sL1057L
V\u8fd4\u8fd8
p1059
sL1058L
V\u4ed6\u4eec
p1060
sL1059L
V\u5e74\u9f84
p1061
sL1060L
V\u4e70\u623f
p1062
sL1061L
V\u7533\u8bc9
p1063
sL1062L
V\u53d1\u73b0
p1064
sL1063L
V\u4e07\u5206\u4e4b
p1065
sL1064L
V\u6682\u65e0
p1066
sL1065L
V\u63d0\u53d6
p1067
sL1066L
V\u5047\u5982
p1068
sL1067L
V\u6807\u5fd7
p1069
sL1068L
V\u53d1\u7ea2\u5305
p1070
sL1069L
V\u73b0\u5b9e
p1071
sL1070L
V\u4e24\u671f
p1072
sL1071L
V\u60f3\u67e5
p1073
sL1072L
V\u540c
p1074
sL1073L
V\u51b2\u7a81
p1075
sL1074L
V\u5220
p1076
sL1075L
V\u6709\u7528
p1077
sL1076L
V\u80fd\u6536
p1078
sL1077L
V\u9000\u94b1
p1079
sL1078L
V\u63a5
p1080
sL1079L
V\u52a0\u6cb9\u5361
p1081
sL1080L
V\u5206\u94b1
p1082
sL1081L
V\u7528\u9014
p1083
sL1082L
V\u53ef\u501f
p1084
sL1083L
V\u5408\u540c
p1085
sL1084L
V\u548b\u6837
p1086
sL1085L
V\u8fc7\u6b3e
p1087
sL1086L
V\u53d6\u51fa
p1088
sL1087L
V\u62bd\u5230
p1089
sL1088L
V\u89c4\u5219
p1090
sL1089L
V\u89e3\u5c01
p1091
sL1090L
V\u501f\u4e0d
p1092
sL1091L
V\u65b9\u6cd5
p1093
sL1092L
V\u5230\u65f6\u5019
p1094
sL1093L
V\u8f93
p1095
sL1094L
V\u4f53\u73b0
p1096
sL1095L
V\u7968
p1097
sL1096L
V\u6253\u7535\u8bdd
p1098
sL1097L
V\u98de\u673a\u7968
p1099
sL1098L
V\u6162
p1100
sL1099L
V\u661f\u671f
p1101
sL1100L
V\u8bbe
p1102
sL1101L
V\u5728\u7ebf
p1103
sL1102L
V\u516c\u53f8
p1104
sL1103L
V\u671f\u6570
p1105
sL1104L
V\u4fe1\u7528\u793e
p1106
sL1105L
V\u7528\u94b1
p1107
sL1106L
V\u7b2c\u4e8c\u5929
p1108
sL1107L
V\u6b64
p1109
sL1108L
V\u5403\u996d
p1110
sL1109L
V\u8981\u8fd8
p1111
sL1110L
V\u5979
p1112
sL1111L
V\u5b58
p1113
sL1112L
V\u7801\u6536
p1114
sL1113L
V\u8bdd
p1115
sL1114L
V\u5ba2\u6237\u7aef
p1116
sL1115L
V\u5f20
p1117
sL1116L
V\u652f\u51fa
p1118
sL1117L
V\u4e0d\u6da8
p1119
sL1118L
V\u516c\u4ea4
p1120
sL1119L
V\u90a3\u8fb9
p1121
sL1120L
V\u4fbf\u5229\u5e97
p1122
sL1121L
V\u4e00\u4e9b
p1123
sL1122L
V\u7167\u7247
p1124
sL1123L
V\u7b14\u7b14
p1125
sL1124L
V\u7ecf
p1126
sL1125L
V\u501f\u8d37
p1127
sL1126L
V\u4e9b
p1128
sL1127L
V\u7535\u8bdd\u8d39
p1129
sL1128L
V\u53d7\u9650
p1130
sL1129L
V\u65e9\u4e0a
p1131
sL1130L
V\u4e70\u5355
p1132
sL1131L
V\u5f02\u5e38
p1133
sL1132L
V\u8fd8\u80fd
p1134
sL1133L
V\u6e05\u96f6
p1135
sL1134L
V\u8fdb\u4e0d\u4e86
p1136
sL1135L
V\u53c2\u52a0
p1137
sL1136L
V\u518d\u7528
p1138
sL1137L
V\u624b\u673a\u77ed\u4fe1
p1139
sL1138L
V\u5728\u7528
p1140
sL1139L
V\u5e73\u53f0
p1141
sL1140L
V\u5f53
p1142
sL1141L
V\u80fd\u91cf
p1143
sL1142L
V\u6e05\u695a
p1144
sL1143L
V\u65e5\u524d
p1145
sL1144L
V\u6c34\u7535
p1146
sL1145L
V\u826f\u597d
p1147
sL1146L
V\u7acb
p1148
sL1147L
V\u5f00\u4e86\u82b1
p1149
sL1148L
V\u62cd
p1150
sL1149L
V\u5e2e\u52a9
p1151
sL1150L
V\u540e\u679c
p1152
sL1151L
V\u6ca1\u53d8
p1153
sL1152L
V\u4e0d\u901a
p1154
sL1153L
V\u79ef\u5206\u6362
p1155
sL1154L
V\u9996\u9875
p1156
sL1155L
V\u72b6\u6001
p1157
sL1156L
V\u540d\u5b57
p1158
sL1157L
V\u6536\u56de
p1159
sL1158L
V\u8865\u5145
p1160
sL1159L
V\u60f3\u6362
p1161
sL1160L
V\u591a\u591a
p1162
sL1161L
V\u53cd\u5e94
p1163
sL1162L
V\u4e0b\u5355
p1164
sL1163L
V\u8fde
p1165
sL1164L
V\u6302\u5931
p1166
sL1165L
V\u5e72\u4ec0\u4e48
p1167
sL1166L
V\u53ea\u7528
p1168
sL1167L
V\u53d7
p1169
sL1168L
V\u540e\u624d
p1170
sL1169L
V\u6709\u65f6\u5019
p1171
sL1170L
V\u63d0\u4f9b
p1172
sL1171L
V\u5b66\u6821
p1173
sL1172L
V\u7a97\u53e3
p1174
sL1173L
V\u53d1\u5230
p1175
sL1174L
V\u6362\u53f7
p1176
sL1175L
V\u6539\u4e0d\u4e86
p1177
sL1176L
V\u5feb\u9012
p1178
sL1177L
V\u56fe\u6807
p1179
sL1178L
V\u4eab\u53d7
p1180
sL1179L
V\u8be6\u7ec6
p1181
sL1180L
V\u6309\u7167
p1182
sL1181L
V\u4e2a\u4eba\u4fe1\u7528
p1183
sL1182L
V\u963f
p1184
sL1183L
V\u6ca1\u8fd8
p1185
sL1184L
V\u4ed8\u8d26
p1186
sL1185L
V\u6ca1\u6263
p1187
sL1186L
V\u8fc7\u6765
p1188
sL1187L
V\u96f6\u94b1
p1189
sL1188L
V\u4e86\u60f3
p1190
sL1189L
V\u8fd9\u4e9b
p1191
sL1190L
V\u8f6c\u4e0d
p1192
sL1191L
V\u5f80
p1193
sL1192L
V\u6263\u6389
p1194
sL1193L
V\u5546
p1195
sL1194L
V\u6316
p1196
sL1195L
V\u540e\u671f
p1197
sL1196L
V\u63a5\u5165
p1198
sL1197L
V\u4ed8\u80fd
p1199
sL1198L
V\u5730\u5740
p1200
sL1199L
V\u89e3\u7b54
p1201
sL1200L
V\u73b0
p1202
sL1201L
V\u63d0\u6b3e
p1203
sL1202L
V\u6c38\u8fdc
p1204
sL1203L
V\u5bf9\u4e0d\u4e0a
p1205
sL1204L
V\u7a0d\u540e
p1206
sL1205L
V\u8d8a
p1207
sL1206L
V\u5230\u8d26
p1208
sL1207L
V\u996d\u5e97
p1209
sL1208L
V\u624b\u673a\u8d39
p1210
sL1209L
V\u7ed3\u8d26
p1211
sL1210L
V\u5bbd\u9650\u671f
p1212
sL1211L
V\u7eaa\u5f55
p1213
sL1212L
V\u5341\u4e8c\u70b9
p1214
sL1213L
V\u4e0a\u80fd
p1215
sL1214L
V\u95f2\u9c7c
p1216
sL1215L
V\u7248
p1217
sL1216L
V\u8d60\u9001
p1218
sL1217L
V\u51e0\u65f6
p1219
sL1218L
V\u4e00\u4e24\u5929
p1220
sL1219L
V\u660e\u767d
p1221
sL1220L
V\u54af
p1222
sL1221L
V\u4e0d\u80fd\u53d6\u6d88
p1223
sL1222L
V\u54c8
p1224
sL1223L
V\u7f8e
p1225
sL1224L
V\u964d\u5230
p1226
sL1225L
V\u5c0f\u989d
p1227
sL1226L
V\u5173\u952e
p1228
sL1227L
V\u4ed8\u8d39
p1229
sL1228L
V\u8fd8\u7b97
p1230
sL1229L
V\u5206\u5f00
p1231
sL1230L
V\u4e0d\u5f97
p1232
sL1231L
V\u5341\u5929
p1233
sL1232L
V\u4e0b\u6765
p1234
sL1233L
V\u4e09\u5343
p1235
sL1234L
V\u6e05\u5355
p1236
sL1235L
V\u5b9e\u4f53
p1237
sL1236L
V\u8fd4\u6b3e
p1238
sL1237L
V\u62fc
p1239
sL1238L
V\u67e5\u627e
p1240
sL1239L
V\u8d1d\u58f3
p1241
sL1240L
V\u7528\u5230
p1242
sL1241L
V\u6708\u521d
p1243
sL1242L
V\u51e0\u7b14
p1244
sL1243L
V\u5b9e\u65f6
p1245
sL1244L
V\u5931\u6548
p1246
sL1245L
V\u8db3\u8ff9
p1247
sL1246L
V\u6c34\u8d39
p1248
sL1247L
V\u9999\u6e2f
p1249
sL1248L
V\u4e00\u4e0b\u5b50
p1250
sL1249L
V\u5171\u7528
p1251
sL1250L
V\u6bcf\u65e5
p1252
sL1251L
V\u7acb\u9a6c
p1253
sL1252L
V\u4ee3\u4ed8\u6b3e
p1254
sL1253L
V\u8bbe\u5b9a
p1255
sL1254L
V\u5e0c\u671b
p1256
sL1255L
V\u53ca
p1257
sL1256L
V\u9884\u552e
p1258
sL1257L
V\u98de\u732a
p1259
sL1258L
V\u672c\u671f
p1260
sL1259L
V\u65f6\u7528
p1261
sL1260L
V\u5361\u53f7
p1262
sL1261L
V\u8f6c\u7ed9
p1263
sL1262L
V\u4f18\u9177
p1264
sL1263L
V\u8d77
p1265
sL1264L
V\u8d1f\u9762\u5f71\u54cd
p1266
sL1265L
V\u4e0d\u77e5
p1267
sL1266L
V\u574f
p1268
sL1267L
V\u65b0\u5f00\u901a
p1269
sL1268L
V\u591a\u5206
p1270
sL1269L
V\u94fe\u63a5
p1271
sL1270L
V\u53d1\u7968
p1272
sL1271L
V\u4e00\u9879
p1273
sL1272L
V\u7b97\u662f
p1274
sL1273L
V\u6743\u76ca
p1275
sL1274L
V\u94b1\u624d
p1276
sL1275L
V\u4e22\u5931
p1277
sL1276L
V\u6839\u672c
p1278
sL1277L
V\u5546\u94fa
p1279
sL1278L
V\u5de6\u53f3
p1280
sL1279L
V\u767b\u5165
p1281
sL1280L
V\u4e00\u5bb6
p1282
sL1281L
V\u7ec4\u5408
p1283
sL1282L
V\u8303\u56f4
p1284
sL1283L
V\u4e09\u6b21
p1285
sL1284L
V\u653e
p1286
sL1285L
V\u6570\u989d
p1287
sL1286L
V\u96c6\u5206
p1288
sL1287L
V\u7f51\u9875
p1289
sL1288L
V\u5956\u54c1
p1290
sL1289L
V\u6839\u636e
p1291
sL1290L
V\u5f85
p1292
sL1291L
V\u4e8c\u6b21
p1293
sL1292L
V\u8f66\u9669
p1294
sL1293L
V\u65e9\u5c31
p1295
sL1294L
V\u63d0\u51fa
p1296
sL1295L
V\u7b49\u5f85
p1297
sL1296L
V\u5929\u5929
p1298
sL1297L
V\u7801\u7528
p1299
sL1298L
V\u7ed3\u675f
p1300
sL1299L
V\u53d6
p1301
sL1300L
V\u6b21\u6708
p1302
sL1301L
V\u501f\u51fa
p1303
sL1302L
V\u4e0b\u4e0b\u4e2a\u6708
p1304
sL1303L
V\u9884\u5b9a
p1305
sL1304L
V\u5e26
p1306
sL1305L
V\u8db3\u591f
p1307
sL1306L
V\u5230\u8d27
p1308
sL1307L
V\u6700\u665a
p1309
sL1308L
V\u6ca1\u4e8b
p1310
sL1309L
V\u534a\u4e2a
p1311
sL1310L
V\u4e86\u94b1
p1312
sL1311L
V\u5173\u4e8e
p1313
sL1312L
V\u8fd9\u671f
p1314
sL1313L
V\u7531
p1315
sL1314L
V\u540e\u7eed
p1316
sL1315L
V\u503c
p1317
sL1316L
V\u53d8\u5c11
p1318
sL1317L
V\u8f6c\u6362\u6210
p1319
sL1318L
V\u5341\u6708
p1320
sL1319L
V\u524d\u9762
p1321
sL1320L
V\u7535\u5f71\u7968
p1322
sL1321L
V\u5f52\u8fd8
p1323
sL1322L
V\u786e
p1324
sL1323L
V\u4e09\u767e
p1325
sL1324L
V\u5b8c\u94b1
p1326
sL1325L
V\u501f\u5230
p1327
sL1326L
V\u767b\u4e0d
p1328
sL1327L
V\u5206\u624d
p1329
sL1328L
V\u8bfb\u53d6
p1330
sL1329L
V\u5e76\u4e14
p1331
sL1330L
V\u5b9d\u8d1d
p1332
sL1331L
V\u6781\u901f
p1333
sL1332L
V\u4e24\u5e74
p1334
sL1333L
V\u94b1\u5305
p1335
sL1334L
V\u5f7b\u5e95
p1336
sL1335L
V\u6536\u76ca
p1337
sL1336L
V\u7ba1\u7406
p1338
sL1337L
V\u8d85\u65f6
p1339
sL1338L
V\u96f6
p1340
sL1339L
V\u56e0
p1341
sL1340L
V\u51fa\u53bb
p1342
sL1341L
V\u7b49\u4e8e
p1343
sL1342L
V\u9644\u8fd1
p1344
sL1343L
V\u4e8c
p1345
sL1344L
V\u6dd8\u5b9d\u7f51
p1346
sL1345L
V\u4e0b\u8c03
p1347
sL1346L
V\u539f
p1348
sL1347L
V\u62a2
p1349
sL1348L
V\u65b0\u4eba
p1350
sL1349L
V\u4e94\u5929
p1351
sL1350L
V\u91cd\u5f00
p1352
sL1351L
V\u6d41\u6c34
p1353
sL1352L
V\u4e86\u8fd8
p1354
sL1353L
V\u4e13\u5c5e
p1355
sL1354L
V\u5206\u6570
p1356
sL1355L
V\u8d26\u53f7\u5bc6\u7801
p1357
sL1356L
V\u4e0d\u80fd\u4e0d
p1358
sL1357L
V\u8f6c\u4e3a
p1359
sL1358L
V\u5e2e\u522b\u4eba
p1360
sL1359L
V\u5145\u7535
p1361
sL1360L
V\u56de\u53bb
p1362
sL1361L
V\u5b9a\u91d1
p1363
sL1362L
V\u8eab\u4efd\u9a8c\u8bc1
p1364
sL1363L
V\u7528\u8fc7
p1365
sL1364L
V\u8fc7\u53bb
p1366
sL1365L
V\u8865\u5168
p1367
sL1366L
V\u8df3
p1368
sL1367L
V\u5206\u4eab
p1369
sL1368L
V\u5206\u4e3a
p1370
sL1369L
V\u4e2a\u4eba\u4fe1\u606f
p1371
sL1370L
V\u4e2d\u56fd
p1372
sL1371L
V\u901a\u4e0d\u8fc7
p1373
sL1372L
V\u63d0\u94b1
p1374
sL1373L
V\u5546\u57ce
p1375
sL1374L
V\u65f6\u4f1a
p1376
sL1375L
V\u4ea4\u9519
p1377
sL1376L
V\u603b\u91d1\u989d
p1378
sL1377L
V\u8c03\u989d
p1379
sL1378L
V\u501f\u7528
p1380
sL1379L
V\u63a8\u8350
p1381
sL1380L
V\u4e24\u5343
p1382
sL1381L
V\u82e5
p1383
sL1382L
V\u51c6\u5907
p1384
sL1383L
V\u4e00\u6b65
p1385
sL1384L
V\u5f00\u5f00
p1386
sL1385L
V\u5468\u5361
p1387
sL1386L
V\u4fe1
p1388
sL1387L
V\u505c\u6b62
p1389
sL1388L
V\u622a\u6b62
p1390
sL1389L
V\u539f\u5148
p1391
sL1390L
V\u4e94\u5343
p1392
sL1391L
V\u6253\u5370
p1393
sL1392L
Vofo
p1394
sL1393L
V\u82b1\u5b8c
p1395
sL1394L
V\u5165
p1396
sL1395L
V\u5230\u54ea\u53bb
p1397
sL1396L
V\u507f\u8fd8
p1398
sL1397L
V\u82b1\u88ab
p1399
sL1398L
V\u8d85\u9650
p1400
sL1399L
V\u62d6
p1401
sL1400L
V\u8bc1\u4ef6
p1402
sL1401L
V\u6447\u4e00\u6447
p1403
sL1402L
V\u5206\u6709
p1404
sL1403L
V\u4e4b\u5185
p1405
sL1404L
V\u865a\u62df
p1406
sL1405L
V\u7b49\u5230
p1407
sL1406L
V\u66ff
p1408
sL1407L
V\u8ba1\u5212
p1409
sL1408L
V\u5546\u8d27
p1410
sL1409L
V\u4e13\u4eab
p1411
sL1410L
V\u505c\u6389
p1412
sL1411L
V\u9996\u671f
p1413
sL1412L
V\u5173\u6ce8
p1414
sL1413L
V\u5145\u94b1
p1415
sL1414L
V\u4fdd\u9669
p1416
sL1415L
V\u589e\u957f
p1417
sL1416L
V\u5206\u80fd
p1418
sL1417L
V\u9000\u8ba2
p1419
sL1418L
V\u6d88
p1420
sL1419L
V\u4e00\u5206
p1421
sL1420L
V\u5355\u72ec
p1422
sL1421L
V\u5b50
p1423
sL1422L
V\u5b9e\u7528
p1424
sL1423L
V\u56fd\u5916
p1425
sL1424L
V\u94b1\u6b3e
p1426
sL1425L
V\u9020\u6210
p1427
sL1426L
V\u6807\u51c6
p1428
sL1427L
V\u8f6c\u8fc7
p1429
sL1428L
V\u4fdd\u8bc1\u91d1
p1430
sL1429L
V\u5361\u80fd
p1431
sL1430L
V\u5956\u52b1
p1432
sL1431L
V\u5b8c\u5168
p1433
sL1432L
V\u95ee\u4e0b
p1434
sL1433L
V\u65e0\u7f18\u65e0\u6545
p1435
sL1434L
V\u968f
p1436
sL1435L
V\u81ea\u52a9
p1437
sL1436L
V\u6709\u65f6
p1438
sL1437L
V\u505c\u673a
p1439
sL1438L
V\u62e5\u6709
p1440
sL1439L
V\u7535\u5b50
p1441
sL1440L
V\u653e\u5230
p1442
sL1441L
V\u533b\u9662
p1443
sL1442L
V\u64a4\u56de
p1444
sL1443L
V\u6709\u4eba
p1445
sL1444L
V\u7684\u7684
p1446
sL1445L
V\u8d34\u7eb8
p1447
sL1446L
V\u597d\u51e0\u4e2a
p1448
sL1447L
V\u624b\u673a\u5361
p1449
sL1448L
V\u884c\u4e0d\u884c
p1450
sL1449L
V\u6ca1\u9000
p1451
sL1450L
V\u611f\u89c9
p1452
sL1451L
V\u8d27\u7269
p1453
sL1452L
V\u4e86\u5230
p1454
sL1453L
V\u975e
p1455
sL1454L
V\u4e24
p1456
sL1455L
V\u8fc7\u5e74
p1457
sL1456L
V\u4e0b\u9762
p1458
sL1457L
V\u8054\u7cfb\u4eba
p1459
sL1458L
V\u5c31\u662f\u8bf4
p1460
sL1459L
V\u666e\u901a
p1461
sL1460L
V\u7591\u95ee
p1462
sL1461L
V\u521d\u4e2d
p1463
sL1462L
V\u5408\u9002
p1464
sL1463L
V\u6253\u5230
p1465
sL1464L
V\u4e00\u6708\u4efd
p1466
sL1465L
V\u624b\u7eed
p1467
sL1466L
V\u968f\u501f
p1468
sL1467L
V\u8bb0\u8d26
p1469
sL1468L
V\u7528\u561b
p1470
sL1469L
V\u6709\u70b9
p1471
sL1470L
V\u6539\u7b7e
p1472
sL1471L
V\u9000\u6389
p1473
sL1472L
V\u7f51\u7ad9
p1474
sL1473L
V\u8be6\u60c5
p1475
sL1474L
V\u9000\u56de\u53bb
p1476
sL1475L
V\u5ba1\u6279
p1477
sL1476L
V\u51cf\u514d
p1478
sL1477L
V\u51fa\u94b1
p1479
sL1478L
V\u8c03\u56de\u6765
p1480
sL1479L
V\u80fd\u4ed8
p1481
sL1480L
V\u63a5\u6536
p1482
sL1481L
V\u65b0\u624b\u673a
p1483
sL1482L
V\u7b49\u7ea7
p1484
sL1483L
V\u7981\u6b62
p1485
sL1484L
V\u6362\u5230
p1486
sL1485L
V\u5386\u53f2
p1487
sL1486L
V\u7ebf
p1488
sL1487L
V\u5176\u4ed6\u4eba
p1489
sL1488L
V\u4f18\u60e0\u5377
p1490
sL1489L
V\u6628\u5929\u665a\u4e0a
p1491
sL1490L
V\u8eab\u4efd\u8bc1\u53f7
p1492
sL1491L
V\u5bbd\u9650
p1493
sL1492L
V\u751f\u6548
p1494
sL1493L
V\u5356
p1495
sL1494L
V\u53d8\u4f4e
p1496
sL1495L
V\u83b7\u53d6
p1497
sL1496L
V\u7eed\u8d39
p1498
sL1497L
V\u6211\u5df1
p1499
sL1498L
V\u80fd\u5f00
p1500
sL1499L
V\u7b2c\u4e00
p1501
sL1500L
V\u524d\u5929
p1502
sL1501L
V\u9996\u4ed8
p1503
sL1502L
V\u65e9
p1504
sL1503L
V\u6700\u597d
p1505
sL1504L
V\u539f\u6709
p1506
sL1505L
V\u4e00\u5757
p1507
sL1506L
V\u8fd8\u7684\u662f
p1508
sL1507L
V\u6b63\u5728
p1509
sL1508L
V\u77ed
p1510
sL1509L
V\u53e0\u52a0
p1511
sL1510L
V\u4e5f\u5c31\u662f\u8bf4
p1512
sL1511L
V\u51e0\u5e74
p1513
sL1512L
V\u573a\u666f
p1514
sL1513L
V\u57fa\u91d1
p1515
sL1514L
V\u6211\u4f1a
p1516
sL1515L
V\u6ca1\u6da8
p1517
sL1516L
V\u6700\u5feb
p1518
sL1517L
V\u6361
p1519
sL1518L
V\u552e\u540e
p1520
sL1519L
V\u4fe9\u4e2a
p1521
sL1520L
V\u5343
p1522
sL1521L
V\u633a
p1523
sL1522L
V\u8bf4\u4e0d
p1524
sL1523L
V\u540e\u4e0b
p1525
sL1524L
V\u4ee5\u4e3a
p1526
sL1525L
V\u5356\u4e1c\u897f
p1527
sL1526L
V\u6539\u8fc7\u6765
p1528
sL1527L
V\u6ee1\u8db3\u6761\u4ef6
p1529
sL1528L
V\u5e97\u9762
p1530
sL1529L
V\u4e00\u4efd
p1531
sL1530L
V\u6709\u7684\u662f
p1532
sL1531L
V\u4e8e
p1533
sL1532L
V\u901a
p1534
sL1533L
V\u7f51\u7edc
p1535
sL1534L
V\u6bd4\u5982\u8bf4
p1536
sL1535L
V\u63a5\u53d7
p1537
sL1536L
V\u7acb\u523b
p1538
sL1537L
V\u7ec8\u6b62
p1539
sL1538L
V\u8ba1\u5165
p1540
sL1539L
V\u4e0a\u5347
p1541
sL1540L
V\u540c\u6837
p1542
sL1541L
V\u7ed3
p1543
sL1542L
V\u8ba1\u606f
p1544
sL1543L
V\u5916\u9762
p1545
sL1544L
V\u591a\u957f
p1546
sL1545L
V\u89c9\u5f97
p1547
sL1546L
V\u53d7\u9650\u5236
p1548
sL1547L
V\u4eca\u5e74
p1549
sL1548L
V\u5341\u4e8c\u6708
p1550
sL1549L
V\u4e94
p1551
sL1550L
V\u5b58\u94b1
p1552
sL1551L
V\u5305\u542b
p1553
sL1552L
V\u800c\u662f
p1554
sL1553L
V\u53d8\u4e3a
p1555
sL1554L
V\u7ed9\u6211\u53d1
p1556
sL1555L
V\u6539\u6b3e
p1557
sL1556L
V\u6837\u5b50
p1558
sL1557L
V\u73b0\u6709
p1559
sL1558L
V\u5b57
p1560
sL1559L
V\u901a\u7528
p1561
sL1560L
V\u6ee1\u51cf
p1562
sL1561L
V\u53d1\u653e
p1563
sL1562L
V\u4e3a\u4e86
p1564
sL1563L
V\u55ce
p1565
sL1564L
V\u7b97\u4e86
p1566
sL1565L
V\u6625\u8282
p1567
sL1566L
V\u5e94\u8fd8
p1568
sL1567L
V\u4e00\u5468
p1569
sL1568L
V\uff5e
p1570
sL1569L
V\u5fae
p1571
sL1570L
V\u5feb\u70b9
p1572
sL1571L
V\u4e0a\u6765
p1573
sL1572L
V\u51bb
p1574
sL1573L
V\u5c31\u7b97
p1575
sL1574L
V\u8bf4\u660e
p1576
sL1575L
V\u4ecd
p1577
sL1576L
V\u6c92\u6709
p1578
sL1577L
V\u5229\u76ca
p1579
sL1578L
V\u5347\u7ea7\u6210
p1580
sL1579L
V\u4e00\u79cd
p1581
sL1580L
V\u4e00\u5355
p1582
sL1581L
V\u652f\u4e0d
p1583
sL1582L
V\u4ee3\u8fd8
p1584
sL1583L
V\u524d\u4e24\u5929
p1585
sL1584L
V\u5efa\u8bae
p1586
sL1585L
V\u5416
p1587
sL1586L
V\u6700\u5e95
p1588
sL1587L
V\u540e\u5728
p1589
sL1588L
V\u4e3b\u9875
p1590
sL1589L
V\u53cd\u800c
p1591
sL1590L
V\u52a0\u5165
p1592
sL1591L
V\u4e94\u5341
p1593
sL1592L
V\u6539\u56de\u6765
p1594
sL1593L
V\u4e0a\u627e
p1595
sL1594L
V\u4ee5\u5185
p1596
sL1595L
V\u7edf\u4e00
p1597
sL1596L
V\u4e71
p1598
sL1597L
V\u8f6c\u9519
p1599
sL1598L
V\u8865
p1600
sL1599L
V\u53d1\u9001
p1601
sL1600L
V\u4e00\u6761
p1602
sL1601L
V\u8fd9\u6708
p1603
sL1602L
V\u6307\u5b9a
p1604
sL1603L
V\u8f6c\u94b1
p1605
sL1604L
V\u5546\u54c1\u4ef7\u683c
p1606
sL1605L
V\u94b1\u6570
p1607
sL1606L
V\u4e00\u767e\u5143
p1608
sL1607L
V\u8d85\u671f
p1609
sL1608L
V\u989d\u5916
p1610
sL1609L
V\u5b9a\u671f
p1611
sL1610L
V\u7f51\u8d2d
p1612
sL1611L
V\u4e86\u9000
p1613
sL1612L
V\u9b3c
p1614
sL1613L
V\u6709\u4f55
p1615
sL1614L
V\u8fdf\u8fdf
p1616
sL1615L
V\u4fdd\u969c
p1617
sL1616L
V\u624b\u672f\u8d39
p1618
sL1617L
V\u63d0\u82b1
p1619
sL1618L
V\u542f\u7528
p1620
sL1619L
V\u63a8\u540e
p1621
sL1620L
V\u98ce
p1622
sL1621L
V\u62c9
p1623
sL1622L
V\u53e3
p1624
sL1623L
V\u63a8\u5e7f
p1625
sL1624L
V\u6ca1\u51cf
p1626
sL1625L
V\u4e0a\u7ebf
p1627
sL1626L
V\u591a\u7528
p1628
sL1627L
V\u4e0a\u5348
p1629
sL1628L
V\u80fd\u82b1
p1630
sL1629L
V\u7528\u5b8c
p1631
sL1630L
V\u8fd9\u79cd
p1632
sL1631L
V\u5374\u662f
p1633
sL1632L
V\u62b5\u7528
p1634
sL1633L
V\u968f\u4fbf
p1635
sL1634L
V\u79fb\u52a8
p1636
sL1635L
V\u4e00\u767e\u591a
p1637
sL1636L
V\u8fd8\u597d
p1638
sL1637L
V\u5177\u5907
p1639
sL1638L
V\u4f5c\u7528
p1640
sL1639L
V\u6ca1\u7ed9
p1641
sL1640L
V\u4e00\u4f1a
p1642
sL1641L
V\u6015
p1643
sL1642L
V\u65b9\u4fbf
p1644
sL1643L
V\u672c\u606f
p1645
sL1644L
V\u8981\u7528
p1646
sL1645L
V\u53d7\u5230
p1647
sL1646L
V\u9501
p1648
sL1647L
V\u5b8c\u80fd
p1649
sL1648L
V\u51ed
p1650
sL1649L
V\u4e0d\u518d
p1651
sL1650L
V\u6ca1\u5c11
p1652
sL1651L
V\u80fd\u5145
p1653
sL1652L
V\u91d1
p1654
sL1653L
V\u652f
p1655
sL1654L
V\u522b
p1656
sL1655L
V\u4e24\u767e
p1657
sL1656L
V\u5f80\u540e
p1658
sL1657L
V\u4e24\u4e07
p1659
sL1658L
V\u53d1\u7ed9
p1660
sL1659L
V\u53bb\u5411
p1661
sL1660L
V\u7b2c\u4e00\u7b14
p1662
sL1661L
V\u63a7
p1663
sL1662L
V\u5f00\u5173
p1664
sL1663L
V\u4ecd\u7136
p1665
sL1664L
V\u8fd8\u539f
p1666
sL1665L
V\u4f9d\u7136
p1667
sL1666L
V\u53eb\u5916\u5356
p1668
sL1667L
V\u501f\u8fc7
p1669
sL1668L
V\u5f85\u5904\u7406
p1670
sL1669L
V\u8bc4\u5206
p1671
sL1670L
V\u901a\u9053
p1672
sL1671L
V\u6709\u9650
p1673
sL1672L
V\u5e95
p1674
sL1673L
V\u62b5
p1675
sL1674L
V\u6dd8
p1676
sL1675L
V\u5fd9
p1677
sL1676L
V\u6682\u672a
p1678
sL1677L
V\u7533\u8bf7\u4eba
p1679
sL1678L
V\u6492
p1680
sL1679L
V\u665a\u70b9
p1681
sL1680L
V\u4e00\u6b3e
p1682
sL1681L
V\u6d41\u7a0b
p1683
sL1682L
V\u6708\u7528
p1684
sL1683L
V\u6240
p1685
sL1684L
V\u94b1\u80fd
p1686
sL1685L
V\u6025
p1687
sL1686L
V\u8981\u6362
p1688
sL1687L
V\u5378\u8f7d
p1689
sL1688L
V\u84dd\u8f66
p1690
sL1689L
V\u4e70\u7968
p1691
sL1690L
V\u82cf\u5b81
p1692
sL1691L
V\u5341\u4e94\u53f7
p1693
sL1692L
V\u65f6\u80fd
p1694
sL1693L
V\u5237\u65b0
p1695
sL1694L
V\u732b
p1696
sL1695L
V\u4e00\u5343\u591a
p1697
sL1696L
V\u8f6c\u4e0d\u8fdb
p1698
sL1697L
V\u7531\u4e8e
p1699
sL1698L
V\u770b\u4e0d\u89c1
p1700
sL1699L
Vqb
p1701
sL1700L
V\u94a5\u5319
p1702
sL1701L
V\u622a\u56fe
p1703
sL1702L
V\u54ea\u4e00\u5929
p1704
sL1703L
V\u63a5\u7740
p1705
sL1704L
V\u58f3
p1706
sL1705L
V\u5e26\u6709
p1707
sL1706L
V\u4e3b\u8981
p1708
sL1707L
V\u552f\u54c1
p1709
sL1708L
V\u5dee\u4e0d\u591a
p1710
sL1709L
V\u90a3\u79cd
p1711
sL1710L
V\u606f
p1712
sL1711L
V\u4e09\u767e\u591a
p1713
sL1712L
V\u53bb\u5e74
p1714
sL1713L
V\u7f5a\u606f
p1715
sL1714L
V\u624b
p1716
sL1715L
V\u6346\u7ed1
p1717
sL1716L
V\u89c1
p1718
sL1717L
V\u9879\u76ee
p1719
sL1718L
V\u5b98\u65b9
p1720
sL1719L
V\u592a\u6162
p1721
sL1720L
V\u6362\u7ed1
p1722
sL1721L
V\u786e\u5b9e
p1723
sL1722L
V\u505c\u6b62\u4f7f\u7528
p1724
sL1723L
V\u4e3b
p1725
sL1724L
V\u4e5d\u4e2a
p1726
sL1725L
V\u5750
p1727
sL1726L
V\u7528\u5904
p1728
sL1727L
V\u5f3a\u5236
p1729
sL1728L
V\u5212\u7b97
p1730
sL1729L
V\u5fd8\u8fd8
p1731
sL1730L
V\u5c0f\u871c
p1732
sL1731L
V\u6ca1\u5f00
p1733
sL1732L
V\u4fdd\u62a4
p1734
sL1733L
V\u590d\u5229
p1735
sL1734L
V\u8f66\u724c\u53f7
p1736
sL1735L
V\u6838\u5bf9
p1737
sL1736L
V\u548b\u4e48
p1738
sL1737L
V\u5c0f\u8d37
p1739
sL1738L
V\u8981\u94b1
p1740
sL1739L
V\u9884\u7ea6
p1741
sL1740L
V\u66f0
p1742
sL1741L
V\u6362\u56de
p1743
sL1742L
V\u5600\u5600
p1744
sL1743L
V\u591a\u5143
p1745
sL1744L
V\u5efa\u8bae\u60a8
p1746
sL1745L
V\u521d\u59cb\u5316
p1747
sL1746L
V\u6bd4\u8f83
p1748
sL1747L
V\u6025\u7528
p1749
sL1748L
V\u91d1\u878d
p1750
sL1749L
V\u6ce8\u610f
p1751
sL1750L
V\u7070\u8272
p1752
sL1751L
V\u5374\u8bf4
p1753
sL1752L
V\u8d1f\u4f1a
p1754
sL1753L
V\u6253\u7b97
p1755
sL1754L
V\u5b9e\u540d\u5236
p1756
sL1755L
V\u7f5a\u6b3e
p1757
sL1756L
V\u5f00\u653e
p1758
sL1757L
V\u8d27\u5230\u4ed8\u6b3e
p1759
sL1758L
V\u51fa\u9519
p1760
sL1759L
V\u903e
p1761
sL1760L
V\u5360
p1762
sL1761L
V\u800c\u5df2
p1763
sL1762L
V\u6b63\u786e
p1764
sL1763L
V\u55bd
p1765
sL1764L
V\u738b\u8005
p1766
sL1765L
V\u8363\u8000
p1767
sL1766L
V\u51c6\u65f6
p1768
sL1767L
V\u53d1\u5de5\u8d44
p1769
sL1768L
V\u542c\u8bf4
p1770
sL1769L
V\u51cc\u6668
p1771
sL1770L
V\u6574
p1772
sL1771L
V\u4e0a\u6da8
p1773
sL1772L
V\u4e00\u90e8
p1774
sL1773L
V\u4e00\u5143
p1775
sL1774L
V\u8d5a
p1776
sL1775L
V\u7535
p1777
sL1776L
V\u4e07\u5206
p1778
sL1777L
V\u56fe\u7247
p1779
sL1778L
V\u91cd\u5e86
p1780
sL1779L
V\u4eba\u6570
p1781
sL1780L
V\u5341\u5143
p1782
sL1781L
V\u90fd\u8fd8\u6ca1
p1783
sL1782L
V\u5f53\u671f
p1784
sL1783L
V\u65b9
p1785
sL1784L
V\u8fd8\u4e86
p1786
sL1785L
V\u963f\u91cc\u5df4\u5df4
p1787
sL1786L
V\u548c\u7f51
p1788
sL1787L
V\u65b0\u53f7
p1789
sL1788L
V\u50ac
p1790
sL1789L
V\u5bb6
p1791
sL1790L
V\u6bdb
p1792
sL1791L
V\u8001\u516c
p1793
sL1792L
V\u5546\u4ee3
p1794
sL1793L
V\u56de\u4e8b\u513f
p1795
sL1794L
V\u62b5\u6d88
p1796
sL1795L
V\u7981\u7528
p1797
sL1796L
V\u8282\u5047\u65e5
p1798
sL1797L
V\u56db
p1799
sL1798L
V\u5c1d\u8bd5
p1800
sL1799L
V\u9650\u65f6
p1801
sL1800L
V\u6309\u4e86
p1802
sL1801L
V\u5929\u6709
p1803
sL1802L
V\u7ba1
p1804
sL1803L
V\u6c42
p1805
sL1804L
V\u5403
p1806
sL1805L
V\u5206\u522b
p1807
sL1806L
V\u63d0\u8d77
p1808
sL1807L
V\u7f29\u77ed
p1809
sL1808L
V\u7b2c\u4e8c\u671f
p1810
sL1809L
V\u6ca1\u53d1
p1811
sL1810L
V\u9000\u6362
p1812
sL1811L
V\u9ec4\u91d1\u4f1a\u5458
p1813
sL1812L
V\u4e0a\u6263
p1814
sL1813L
V\u559c\u6b22
p1815
sL1814L
V\u611f
p1816
sL1815L
V\u9996\u5148
p1817
sL1816L
V\u4e24\u5f20
p1818
sL1817L
Vpc
p1819
sL1818L
V\u8138\u90e8
p1820
sL1819L
V\u80fd\u67e5
p1821
sL1820L
V\u6709\u4e8b\u5417
p1822
sL1821L
V\u65e5\u606f
p1823
sL1822L
V\u4ef7\u94b1
p1824
sL1823L
V\u4e86\u6362
p1825
sL1824L
V\u8bf4\u7528
p1826
sL1825L
V\u7a0b\u5e8f
p1827
sL1826L
V\u5206\u949f
p1828
sL1827L
V\u6307\u7eb9
p1829
sL1828L
V\u51e0
p1830
sL1829L
V\u68ee\u6797
p1831
sL1830L
V\u65e5\u5b50
p1832
sL1831L
V\u7528\u8fd8
p1833
sL1832L
V\u5206\u8981
p1834
sL1833L
V\u963f\u91cc
p1835
sL1834L
V\u9047\u5230
p1836
sL1835L
V\u9500\u6237
p1837
sL1836L
V\u4e00\u514d
p1838
sL1837L
V\u5236\u4f5c
p1839
sL1838L
V\u4e8c\u5929
p1840
sL1839L
V\u524d\u6bb5\u65f6\u95f4
p1841
sL1840L
V\u540c\u4e8b
p1842
sL1841L
V\u5408\u4f5c
p1843
sL1842L
V\u4e0d\u51fa
p1844
sL1843L
V\u65e9\u70b9
p1845
sL1844L
V\u501f\u8bb0\u5361
p1846
sL1845L
V\u6536\u4e0d\u6536
p1847
sL1846L
V\u54ea\u4e9b\u5730\u65b9
p1848
sL1847L
V\u7f51\u5427
p1849
sL1848L
V\u4e4b
p1850
sL1849L
V\u6263\u4e48
p1851
sL1850L
V\u8bf7\u6c42
p1852
sL1851L
V\u4e0d\u5bf9
p1853
sL1852L
V\u4e0d\u5728
p1854
sL1853L
V\u5173\u4e0d\u4e86
p1855
sL1854L
V\u591a\u51fa
p1856
sL1855L
V\u4e0b\u4f1a
p1857
sL1856L
V\u4ee5\u4e0b
p1858
sL1857L
V\u627f\u62c5
p1859
sL1858L
V\u5ba1\u8bf7
p1860
sL1859L
V\u4ec0\u6211
p1861
sL1860L
V\u6e20\u9053
p1862
sL1861L
V\u91cd
p1863
sL1862L
V\u65b0\u624b
p1864
sL1863L
V\u519c\u884c
p1865
sL1864L
V\u5341\u6708\u4efd
p1866
sL1865L
V\u6309\u94ae
p1867
sL1866L
V\u56fe
p1868
sL1867L
V\u6e2f\u6fb3
p1869
sL1868L
V\u4ec0\u9ebc
p1870
sL1869L
V\u521d\u59cb
p1871
sL1870L
V\u5916
p1872
sL1871L
V\u65b9\u9762
p1873
sL1872L
V\u652f\u4ed8\u6b3e
p1874
sL1873L
V\u5b8c\u6bd5
p1875
sL1874L
V\u987a\u98ce
p1876
sL1875L
V\u8d1f\u989d
p1877
sL1876L
V\u7d2f\u8ba1
p1878
sL1877L
V\u81ea\u7136
p1879
sL1878L
V\u5e2e\u8fd8
p1880
sL1879L
V\u4f55\u65f6\u80fd
p1881
sL1880L
V\u5f00\u80fd
p1882
sL1881L
V\u4e0d\u5f00
p1883
sL1882L
V\u6ef4
p1884
sL1883L
V\u6ca1\u6362
p1885
sL1884L
V\u6742
p1886
sL1885L
V\u4e09
p1887
sL1886L
V\u5927\u7ea6
p1888
sL1887L
V\u5bbe\u9986
p1889
sL1888L
V\u964d\u4e0b\u6765
p1890
sL1889L
V\u8fd8\u884c
p1891
sL1890L
V\u4e4b\u7c7b
p1892
sL1891L
V\u534f\u8bae
p1893
sL1892L
V\u7167
p1894
sL1893L
V\u63a8
p1895
sL1894L
V\u7248\u672c
p1896
sL1895L
V\u5f88\u4e45
p1897
sL1896L
V\u5077
p1898
sL1897L
V\u539f\u672c
p1899
sL1898L
V\u8fd8\u540e
p1900
sL1899L
V\u9002\u5408
p1901
sL1900L
V\u8d85\u652f
p1902
sL1901L
V\u52a0\u4e0a
p1903
sL1902L
V\u60f3\u5f00
p1904
sL1903L
V\u4e5d\u6708\u4efd
p1905
sL1904L
V\u9a91
p1906
sL1905L
V\u7f51\u5e97
p1907
sL1906L
V\u7ef4\u62a4
p1908
sL1907L
V\u4e0b\u671f
p1909
sL1908L
V\u4e8c\u6708
p1910
sL1909L
V\u51e0\u5206\u949f
p1911
sL1910L
V\u641e\u9519
p1912
sL1911L
V\u98df\u54c1
p1913
sL1912L
V\u9014\u5f84
p1914
sL1913L
V\u534f\u5546
p1915
sL1914L
V\u8f66\u8f86
p1916
sL1915L
V\u53d6\u73b0
p1917
sL1916L
V\u501f\u4e48
p1918
sL1917L
V\u591a\u4f59
p1919
sL1918L
V\u4e07\u5143
p1920
sL1919L
V\u4e14
p1921
sL1920L
V\u8981\u4ed8
p1922
sL1921L
V\u513f
p1923
sL1922L
V\u4f5c\u4e3a
p1924
sL1923L
V\u70b9\u5f00
p1925
sL1924L
V\u65e5\u7528
p1926
sL1925L
V\u7ed3\u51bb
p1927
sL1926L
V\u5ef6\u957f\u65f6\u95f4
p1928
sL1927L
V\u5988
p1929
sL1928L
V\u819c\u62dc
p1930
sL1929L
V\u89e3\u7ea6
p1931
sL1930L
V\u80fd\u8c03
p1932
sL1931L
V\u51b2\u503c
p1933
sL1932L
Vw
p1934
sL1933L
V\u5f04\u9519
p1935
sL1934L
V\u5b58\u5230
p1936
sL1935L
V\u4e25\u91cd
p1937
sL1936L
V\u6b3e\u6b3e
p1938
sL1937L
V\u53d8\u52a8
p1939
sL1938L
V\u8d1d
p1940
sL1939L
V\u4fdd\u7559
p1941
sL1940L
V\u7684\u5238
p1942
sL1941L
V\u4e24\u4e09\u5929
p1943
sL1942L
V\u81ea\u884c
p1944
sL1943L
V\u5305
p1945
sL1944L
V\u6bcf\u7b14
p1946
sL1945L
V\u6bd5\u4e1a
p1947
sL1946L
V\u5df2\u6263
p1948
sL1947L
V\u51e0\u65e5
p1949
sL1948L
V\u540c\u4e00\u5929
p1950
sL1949L
V\u5199\u9519
p1951
sL1950L
V\u9000\u8fd8\u7ed9
p1952
sL1951L
V\u9002\u7528
p1953
sL1952L
V\u4ed8\u5b8c
p1954
sL1953L
V\u90a3\u7b14
p1955
sL1954L
V\u56de\u7b54
p1956
sL1955L
V\u5e73\u65f6
p1957
sL1956L
V\u9884\u652f
p1958
sL1957L
V\u9891\u7e41
p1959
sL1958L
V\u8fd9\u4ef6
p1960
sL1959L
V\u8fdb\u8d26
p1961
sL1960L
V\u4e09\u4e07
p1962
sL1961L
V\u53cc\u500d
p1963
sL1962L
V\u5df2\u7528
p1964
sL1963L
V\u5f88\u5c11
p1965
sL1964L
V\u4f59\u6b3e
p1966
sL1965L
V\u5229
p1967
sL1966L
V\u7ed9\u94b1
p1968
sL1967L
V\u6263\u8fc7
p1969
sL1968L
V\u4e00\u4e07\u591a
p1970
sL1969L
V\u5ef6\u65f6
p1971
sL1970L
V\u4ed8\u7ed9
p1972
sL1971L
V\u6263\u53d6
p1973
sL1972L
V\u9694
p1974
sL1973L
V\u5171\u5b58
p1975
sL1974L
V\u519c\u4e1a\u94f6\u884c
p1976
sL1975L
V\u8fd8\u606f
p1977
sL1976L
V\u63a5\u5230
p1978
sL1977L
V\u5450
p1979
sL1978L
V\u5f20\u5361
p1980
sL1979L
V\u77f3\u6cb9
p1981
sL1980L
V\u6210\u8d1f
p1982
sL1981L
V\u4e0d\u957f
p1983
sL1982L
V\u6709\u672a
p1984
sL1983L
V\u6162\u6162
p1985
sL1984L
V\u71c3\u6c14
p1986
sL1985L
V\u5f00\u4e0d
p1987
sL1986L
V\u540e\u9000
p1988
sL1987L
V\u8ba2\u5355\u53f7
p1989
sL1988L
V\u6211\u5bb6
p1990
sL1989L
V\u516d\u767e
p1991
sL1990L
V\u8d8a\u6765\u8d8a
p1992
sL1991L
V\u518d\u4e5f
p1993
sL1992L
V\u51e0\u5343
p1994
sL1993L
V\u5c31\u884c\u4e86
p1995
sL1994L
V\u70b9\u5238
p1996
sL1995L
V\u767e\u5206\u4e4b
p1997
sL1996L
V\u51cf\u53bb
p1998
sL1997L
V\u7ecf\u8fc7
p1999
sL1998L
V\u5f00\u5934
p2000
sL1999L
V\u4e00\u4e2a\u591a\u6708
p2001
sL2000L
V\u95f4
p2002
sL2001L
V\u4e0d\u5b9a\u671f
p2003
sL2002L
V\u53d7\u6743
p2004
sL2003L
V\u79d2
p2005
sL2004L
V\u4e00\u5343\u5757
p2006
sL2005L
V\u7b2c
p2007
sL2006L
V\u671f\u8fd8
p2008
sL2007L
V\u5ffd\u7565
p2009
sL2008L
V\u4e5d\u6708
p2010
sL2009L
V\u84dd
p2011
sL2010L
V\u5df2\u6709
p2012
sL2011L
Vpos
p2013
sL2012L
V\u5f3a\u884c
p2014
sL2013L
V\u5f00\u4e0d\u5f00
p2015
sL2014L
V\u4e0a\u8c03
p2016
sL2015L
V\u5341\u4e00\u6708
p2017
sL2016L
V\u673a
p2018
sL2017L
V\u4ed8\u4e0d
p2019
sL2018L
V\u4e0d\u600e\u4e48
p2020
sL2019L
V\u7b7e\u6536
p2021
sL2020L
V\u7535\u89c6
p2022
sL2021L
V\u5217\u8868
p2023
sL2022L
V\u4eca\u65e5
p2024
sL2023L
V\u8ddf\u6362
p2025
sL2024L
V\u8c03\u9ad8
p2026
sL2025L
V\u53bb\u6389
p2027
sL2026L
V\u6c83\u5c14\u739b
p2028
sL2027L
V\u5929\u6570
p2029
sL2028L
V\u8f6c\u63a5
p2030
sL2029L
V\u4e0a\u501f
p2031
sL2030L
V\u9650\u5ea6
p2032
sL2031L
V\u53cd\u6b63
p2033
sL2032L
V\u501f\u6765
p2034
sL2033L
V\u4e0b\u6b3e
p2035
sL2034L
V\u4e0a\u6b3e
p2036
sL2035L
V\u67d0
p2037
sL2036L
V\u5f88\u4e45\u6ca1
p2038
sL2037L
V\u9000\u53bb
p2039
sL2038L
V\u5151
p2040
sL2039L
V\u7b26\u5408\u8981\u6c42
p2041
sL2040L
V\u4e00\u4e07\u5757
p2042
sL2041L
V\u5171
p2043
sL2042L
V\u4e00\u6bd4
p2044
sL2043L
V\u8d8a\u671f
p2045
sL2044L
V\u62ff\u5230
p2046
sL2045L
V\u4ee5\u53ca
p2047
sL2046L
V\u7231\u5947\u827a
p2048
sL2047L
V\u542b
p2049
sL2048L
V\u6108\u671f
p2050
sL2049L
V\u5594
p2051
sL2050L
V\u6539\u5230
p2052
sL2051L
V\u5373\u65f6
p2053
sL2052L
V\u5f69\u7968
p2054
sL2053L
V\u6539\u4e48
p2055
sL2054L
V\u5c31\u8ba9
p2056
sL2055L
V\u8fd8\u4e0b
p2057
sL2056L
V\u5237\u8138
p2058
sL2057L
V\u8fd1\u671f
p2059
sL2058L
V\u6696\u6c14\u8d39
p2060
sL2059L
V\u4eca\u665a
p2061
sL2060L
V\u5988\u5988
p2062
sL2061L
V\u7164
p2063
sL2062L
V\u5f00\u4e48
p2064
sL2063L
V\u4e4b\u95f4
p2065
sL2064L
V\u4e0d\u826f\u5f71\u54cd
p2066
sL2065L
V\u5e72
p2067
sL2066L
V\u5176\u5b9e
p2068
sL2067L
V\u673a\u6784
p2069
sL2068L
V\u8f66\u8d39
p2070
sL2069L
V\u4e70\u8f66
p2071
sL2070L
V\u798f\u5229
p2072
sL2071L
V\u7f3a
p2073
sL2072L
V\u83ab\u540d\u5176\u5999
p2074
sL2073L
V\u4f38\u8bf7
p2075
sL2074L
V\u8ba2\u8d2d
p2076
sL2075L
V\u5b58\u5165
p2077
sL2076L
V\u4e00\u767e\u5757
p2078
sL2077L
V\u5927\u5b66
p2079
sL2078L
V\u671f\u540e
p2080
sL2079L
V\u6ca1\u4e70
p2081
sL2080L
V\u6b63
p2082
sL2081L
V\u51b2\u9519
p2083
sL2082L
V\u4e00\u6bb5\u65f6\u95f4
p2084
sL2083L
V\u7ed9\u7528
p2085
sL2084L
V\u5feb\u6377
p2086
sL2085L
V\u56db\u5929
p2087
sL2086L
V\u4ea4\u7535
p2088
sL2087L
V\u76f8\u5173
p2089
sL2088L
V\u8fdd\u89c4
p2090
sL2089L
V\u6ca1\u51fa
p2091
sL2090L
V\u5e2e\u5b9a
p2092
sL2091L
V\u8d1f\u6709
p2093
sL2092L
V\u8ba4\u4e0d\u51fa
p2094
sL2093L
V\u6838\u5b9e
p2095
sL2094L
V\u5355\u5b50
p2096
sL2095L
V\u5185\u5bb9
p2097
sL2096L
V\u5de5\u8d44
p2098
sL2097L
V\u51fa\u79df\u8f66
p2099
sL2098L
V\u5c0f\u53f7
p2100
sL2099L
V\u548b\u4e2a
p2101
sL2100L
V\u591a\u671f
p2102
sL2101L
V\u5bf9\u5e94
p2103
sL2102L
V\u4f59\u671f
p2104
sL2103L
V\u9a6c
p2105
sL2104L
V\u81ea
p2106
sL2105L
V\u6362\u6389
p2107
sL2106L
V\u5206\u4e48
p2108
sL2107L
V\u4e0d\u8fd8
p2109
sL2108L
V\u984d\u5ea6
p2110
sL2109L
V\u4e0d\u5347
p2111
sL2110L
V\u51cf\u94b1
p2112
sL2111L
V\u518d\u6709
p2113
sL2112L
V\u591a\u4ed8
p2114
sL2113L
V\u5ffd\u7136
p2115
sL2114L
V\u90a3\u6837
p2116
sL2115L
V\u96be\u9053
p2117
sL2116L
V\u50ac\u6b3e
p2118
sL2117L
V\u5efa\u884c
p2119
sL2118L
V\u6709\u6548
p2120
sL2119L
V\u62d2\u7edd
p2121
sL2120L
V\u5219
p2122
sL2121L
V\u8bb0
p2123
sL2122L
V\u51fa\u4e0d\u6765
p2124
sL2123L
V\u7387
p2125
sL2124L
V\u6362\u5361
p2126
sL2125L
V\u968f\u8fd8
p2127
sL2126L
V\u66f4\u597d
p2128
sL2127L
V\u5b8c\u4f1a
p2129
sL2128L
V\u5f00\u8d77
p2130
sL2129L
V\u670d
p2131
sL2130L
V\u7b2c\u4e8c\u7b14
p2132
sL2131L
V\u561e
p2133
sL2132L
V\u7a7a\u53f7
p2134
sL2133L
Vm
p2135
sL2134L
V\u542c
p2136
sL2135L
V\u81ea\u4e3b
p2137
sL2136L
V\u9ed1\u540d\u5355
p2138
sL2137L
V\u4ece\u65b0
p2139
sL2138L
V\u6263\u5b8c
p2140
sL2139L
V\u5f00\u53d1\u7968
p2141
sL2140L
V\u63d0\u65e9
p2142
sL2141L
V\u57fa\u672c
p2143
sL2142L
V\u8eab\u8fb9
p2144
sL2143L
V\u4e00\u680f
p2145
sL2144L
V\u5b89\u5b89
p2146
sL2145L
V\u5956
p2147
sL2146L
V\u4e94\u767e\u591a
p2148
sL2147L
V\u5f00\u5e97
p2149
sL2148L
V\u4ecb\u7ecd
p2150
sL2149L
V\u56fa\u8bdd
p2151
sL2150L
V\u8d26\u671f
p2152
sL2151L
V\u4e34\u989d
p2153
sL2152L
V\u91cd\u7f6e
p2154
sL2153L
V\u4ed8\u8fc7
p2155
sL2154L
Vl
p2156
sL2155L
V\u8fd8\u8d37
p2157
sL2156L
V\u4e03\u5929
p2158
sL2157L
V\u770b\u4e0d\u61c2
p2159
sL2158L
V\u5bb6\u88c5
p2160
sL2159L
V\u62d6\u6b20
p2161
sL2160L
V\u65e2\u7136
p2162
sL2161L
V\u4e3a\u4ec0
p2163
sL2162L
V\u6ca1\u89c1
p2164
sL2163L
V\u51cf\u6389
p2165
sL2164L
V\u4e58\u8f66
p2166
sL2165L
V\u51e0\u6708
p2167
sL2166L
V\u65e0\u6545
p2168
sL2167L
V\u8fbe
p2169
sL2168L
V\u6d88\u8d39\u8005
p2170
sL2169L
V\u8f93\u9519
p2171
sL2170L
V\u5bc6\u5ea6
p2172
sL2171L
V\u660e\u7ec6\u8d26
p2173
sL2172L
V\u989d\u989d
p2174
sL2173L
V\u8f6c\u51fa
p2175
sL2174L
V\u8d8a\u591a
p2176
sL2175L
V\u5692
p2177
sL2176L
V\u4f7f\u7528\u6743
p2178
sL2177L
V\u884c\u4e3a
p2179
sL2178L
V\u4f4e\u4e8e
p2180
sL2179L
V\u6536\u94f6\u53f0
p2181
sL2180L
V\u4e07\u4e94
p2182
sL2181L
V\u524d\u63d0
p2183
sL2182L
V\u5355\u65e5
p2184
sL2183L
V\u957f\u671f\u501f\u6b3e
p2185
sL2184L
V\u80fd\u6da8
p2186
sL2185L
V\u6b3e\u4f1a
p2187
sL2186L
V\u94f6
p2188
sL2187L
V\u600e\u9ebc
p2189
sL2188L
V\u6dd8\u6c14
p2190
sL2189L
V\u6362\u5b8c
p2191
sL2190L
V\u5b89\u88c5
p2192
sL2191L
V\u4e8c\u6708\u4efd
p2193
sL2192L
V\u6709\u7ebf\u7535\u89c6
p2194
sL2193L
V\u4fdd\u8bc1
p2195
sL2194L
V\u516d
p2196
sL2195L
V\u5f71
p2197
sL2196L
V\u540c\u6b65
p2198
sL2197L
V\u79fb
p2199
sL2198L
V\u6709\u4e8b
p2200
sL2199L
V\u80af\u5fb7\u57fa
p2201
sL2200L
V\u5343\u591a
p2202
sL2201L
V\u6761
p2203
sL2202L
V\u9650
p2204
sL2203L
V\u94b1\u7528
p2205
sL2204L
V\u6b65\u9aa4
p2206
sL2205L
V\u7f51\u94f6
p2207
sL2206L
V\u53d8\u77ed
p2208
sL2207L
V\u8bb2
p2209
sL2208L
V\u8054\u901a
p2210
sL2209L
V\u62ff\u6765
p2211
sL2210L
V\u5b98\u7f51
p2212
sL2211L
V\u7528\u82b1
p2213
sL2212L
V\u7684\u672a
p2214
sL2213L
V\u771f\u5b9e
p2215
sL2214L
V\u7559
p2216
sL2215L
V\u5de5\u5546\u94f6\u884c
p2217
sL2216L
V\u4efd
p2218
sL2217L
V\u643a\u7a0b
p2219
sL2218L
V\u6536\u83b7
p2220
sL2219L
V\u4ef6
p2221
sL2220L
V\u9650\u5b9a
p2222
sL2221L
V\u76f8\u5f53\u4e8e
p2223
sL2222L
V\u6821\u9a8c\u7801
p2224
sL2223L
V\u51e0\u767e
p2225
sL2224L
V\u5c01\u53f7
p2226
sL2225L
V\u8fc7\u7a0b
p2227
sL2226L
V\u70ed\u7ebf
p2228
sL2227L
V\u5b9a\u65f6
p2229
sL2228L
V\u9ea6\u5f53\u52b3
p2230
sL2229L
V\u6212\u5907
p2231
sL2230L
V\u96be
p2232
sL2231L
Vy
p2233
sL2232L
V\u5bf9\u8d26
p2234
sL2233L
V\u53cd
p2235
sL2234L
V\u4f1a\u957f
p2236
sL2235L
V\u5bb6\u4eba
p2237
sL2236L
V\u6e05\u7a7a
p2238
sL2237L
V\u8681
p2239
sL2238L
V\u8682
p2240
sL2239L
V\u8d2d\u623f
p2241
sL2240L
V\u5bb6\u7535
p2242
sL2241L
V\u4fbf\u5b9c
p2243
sL2242L
V\u4e09\u7b14
p2244
sL2243L
V\u7a7a\u767d
p2245
sL2244L
V\u767e\u591a
p2246
sL2245L
V\u65f6\u671f
p2247
sL2246L
V\u4e70\u70b9
p2248
sL2247L
V\u8fc7\u4e0d\u53bb
p2249
sL2248L
V\u4e0a\u4f1a
p2250
sL2249L
V\u4ee5\u5916
p2251
sL2250L
V\u5e38
p2252
sL2251L
V\u7eb8\u8d28
p2253
sL2252L
V\u68c0\u6d4b
p2254
sL2253L
V\u540d
p2255
sL2254L
V\u7528\u4f1a
p2256
sL2255L
V\u5341\u4e00\u6708\u4efd
p2257
sL2256L
V\u501f\u70b9
p2258
sL2257L
V\u63d0\u9519
p2259
sL2258L
V\u4e00\u5343\u5143
p2260
sL2259L
V\u4e8b\u60c5
p2261
sL2260L
V\u8fd9\u9879
p2262
sL2261L
V\u4e2a\u4eba\u8d44\u6599
p2263
sL2262L
V\u5148\u7528
p2264
sL2263L
V\u7406\u89e3
p2265
sL2264L
V\u5148\u6263
p2266
sL2265L
V\u6821\u9a8c
p2267
sL2266L
V\u6559
p2268
sL2267L
V\u6700\u5c0f
p2269
sL2268L
V\u4e5d\u671f
p2270
sL2269L
V\u4e07\u4e00
p2271
sL2270L
V\u51e0\u5341\u5757
p2272
sL2271L
V\u91cc\u5934
p2273
sL2272L
V\u70b9\u5361
p2274
sL2273L
V\u9a6c\u8681
p2275
sL2274L
V\u597d\u4e0d\u597d
p2276
sL2275L
V\u574f\u5904
p2277
sL2276L
V\u9884\u4ed8\u6b3e
p2278
sL2277L
V\u5173\u4e0a
p2279
sL2278L
V\u4e00\u4e07\u5143
p2280
sL2279L
V\u641e\u4e0d\u61c2
p2281
sL2280L
V\u516d\u767e\u591a
p2282
sL2281L
V\u6027\u8d28
p2283
sL2282L
V\u5206\u4f1a
p2284
sL2283L
V\u5165\u4f4f
p2285
sL2284L
V\u9519\u8fc7
p2286
sL2285L
V\u82b1\u575d
p2287
sL2286L
Vo
p2288
sL2287L
V\u4e0a\u8fb9
p2289
sL2288L
V\u514d\u606f\u671f
p2290
sL2289L
V\u4f4d\u7f6e
p2291
sL2290L
V\u8d76\u7d27
p2292
sL2291L
V\u8d26\u662f
p2293
sL2292L
V\u9000\u4e48
p2294
sL2293L
V\u4e0a\u4e48
p2295
sL2294L
V\u80fd\u5237
p2296
sL2295L
V\u6570\u5b57
p2297
sL2296L
V\u5012
p2298
sL2297L
V\u7533
p2299
sL2298L
V\u5de5\u4f5c\u65e5
p2300
sL2299L
V\u4e0d\u52a8
p2301
sL2300L
V\u51e0\u79cd
p2302
sL2301L
V\uff05
p2303
sL2302L
V\u591a\u7b14
p2304
sL2303L
V\u8c03\u8282
p2305
sL2304L
V\u8611\u83c7
p2306
sL2305L
V\u79df\u673a
p2307
sL2306L
V\u5c0f\u5e97
p2308
sL2307L
V\u8d26\u6b3e
p2309
sL2308L
V\u519c\u5546
p2310
sL2309L
V\u6ca1\u5145
p2311
sL2310L
V\u83ab\u540d
p2312
sL2311L
V\u5237\u5361
p2313
sL2312L
V\u6728
p2314
sL2313L
Vma
p2315
sL2314L
V\u89e3\u9501
p2316
sL2315L
V\u7ed9\u5173
p2317
sL2316L
V\u8865\u529e
p2318
sL2317L
V\u8d35
p2319
sL2318L
V\u5824
p2320
sL2319L
V\u72b6\u51b5
p2321
sL2320L
V\u4e24\u79cd
p2322
sL2321L
V\u6700\u65b0
p2323
sL2322L
V\u6ca1\u7ed1
p2324
sL2323L
V\u662f\u5426\u662f
p2325
sL2324L
V\u6211\u4e00
p2326
sL2325L
V\u9501\u5b9a
p2327
sL2326L
V\u9884\u8ba2
p2328
sL2327L
V\u5e97\u4e3b
p2329
sL2328L
V\u80a1\u7968
p2330
sL2329L
V\u51ed\u8bc1
p2331
sL2330L
V\u7528\u6709
p2332
sL2331L
V\u5c3d\u5feb
p2333
sL2332L
V\u6c92
p2334
sL2333L
V\u5bf9\u4e8e
p2335
sL2334L
V\u6709\u65e0
p2336
sL2335L
V\u7528\u4e0d\u4e0a
p2337
sL2336L
V\u54ea\u5bb6
p2338
sL2337L
V\u8def
p2339
sL2338L
V\u65e5\u540e
p2340
sL2339L
V\u70ba
p2341
sL2340L
V\u5230\u671f\u65e5
p2342
sL2341L
V\u4e5d
p2343
sL2342L
V\u8be6\u5355
p2344
sL2343L
V\u7528\u80fd
p2345
sL2344L
V\u5f53\u521d
p2346
sL2345L
V\u51e0\u767e\u5757
p2347
sL2346L
V\u540e\u672c
p2348
sL2347L
V\u6570\u636e
p2349
sL2348L
V\u7684\u5bf9
p2350
sL2349L
V\u6709\u7528\u5417
p2351
sL2350L
V\u5bf9\u4e86
p2352
sL2351L
V\u53d8\u9ad8
p2353
sL2352L
V\u8fde\u63a5
p2354
sL2353L
V\u8d37\u6b3e\u989d\u5ea6
p2355
sL2354L
V\u6c38\u4e45\u6027
p2356
sL2355L
V\u7b14\u6b3e
p2357
sL2356L
V\u79fb\u5230
p2358
sL2357L
V\u7528\u7528
p2359
sL2358L
V\u6c38
p2360
sL2359L
V\u8dd1
p2361
sL2360L
V\u56db\u767e\u591a
p2362
sL2361L
V\u5361\u80fd\u7528
p2363
sL2362L
V\u5b8c\u4e48
p2364
sL2363L
V\u6ee1\u610f
p2365
sL2364L
V\u5bc6\u4ed8\u4e48
p2366
sL2365L
V\u5b58\u6b3e
p2367
sL2366L
V\u8981\u9000
p2368
sL2367L
V\u54b1\u4eec
p2369
sL2368L
V\u9ad8\u4e8e
p2370
sL2369L
V\u6d77\u5916
p2371
sL2370L
V\u60f3\u9000
p2372
sL2371L
V\u4ed8\u51fa
p2373
sL2372L
V\u793c
p2374
sL2373L
V\u9650\u671f
p2375
sL2374L
V\u603b\u4e48
p2376
sL2375L
V\u4f1a\u7b97
p2377
sL2376L
V\u96c6
p2378
sL2377L
V\u65e0\u9650
p2379
sL2378L
V\u88e4\u5b50
p2380
sL2379L
V\u770b\u51fa
p2381
sL2380L
V\u5148\u4ed8
p2382
sL2381L
V\u6cb9\u5361
p2383
sL2382L
V\u7406\u8d54
p2384
sL2383L
V\u53ef\u5206
p2385
sL2384L
V\u9910
p2386
sL2385L
V\u51fd
p2387
sL2386L
V\u501f\u4e0b
p2388
sL2387L
V]
p2389
sL2388L
V\u8d2d\u7968
p2390
sL2389L
V\u54b1
p2391
sL2390L
V\u5de5\u5546
p2392
sL2391L
V\u964d\u606f
p2393
sL2392L
V\u52a8
p2394
sL2393L
V\u4e24\u767e\u591a
p2395
sL2394L
V\u501f\u7ed9
p2396
sL2395L
V\u641c\u7d22
p2397
sL2396L
V\u5c0f\u7c73
p2398
sL2397L
V\u56db\u4e2a
p2399
sL2398L
V\u76f8\u540c
p2400
sL2399L
V\u5916\u90e8
p2401
sL2400L
V\u4e2d\u5fc3
p2402
sL2401L
V\u7f51\u6613
p2403
sL2402L
V\u4e03\u5341
p2404
sL2403L
V\u672a\u51fa
p2405
sL2404L
V\u8d2d\u7269\u5238
p2406
sL2405L
V\u5583
p2407
sL2406L
V\u8ffd\u56de
p2408
sL2407L
V\u79df\u8f66
p2409
sL2408L
V\u52a9\u5b66
p2410
sL2409L
V\u8bd5\u8bd5
p2411
sL2410L
V\u4e94\u4e07
p2412
sL2411L
V\u6709\u4e48
p2413
sL2412L
V\u540d\u989d
p2414
sL2413L
V\u672c\u8eab
p2415
sL2414L
V\u5212
p2416
sL2415L
V\u62db\u8054
p2417
sL2416L
V\u516d\u53f7
p2418
sL2417L
V\u4e0a\u6709
p2419
sL2418L
V\u8def\u5f84
p2420
sL2419L
V\u6574\u4e48
p2421
sL2420L
V\u8d44\u8d28
p2422
sL2421L
V\u6570\u76ee
p2423
sL2422L
V\u5df3
p2424
sL2423L
V\u5f39\u51fa
p2425
sL2424L
V\u53bb\u9664
p2426
sL2425L
V\u5f00\u4e0d\u8d77
p2427
sL2426L
V\u4e00\u4e0d\u5c0f\u5fc3
p2428
sL2427L
V\u6c47\u7387
p2429
sL2428L
V\u6ca1\u957f
p2430
sL2429L
V\u8fd4\u4f63
p2431
sL2430L
V\u5173\u505c
p2432
sL2431L
V\u9886\u5230
p2433
sL2432L
V\u8ba2\u673a\u7968
p2434
sL2433L
V\u4f59
p2435
sL2434L
V\u4f1a\u4e0a
p2436
sL2435L
V\u6c38\u548c
p2437
sL2436L
V\u6ede\u7eb3\u91d1
p2438
sL2437L
V\u4e8c\u7ef4
p2439
sL2438L
V\u4e2d\u9014
p2440
sL2439L
V\u57ab\u4ed8
p2441
sL2440L
V\u9996
p2442
sL2441L
V\u6025\u9700
p2443
sL2442L
V\u6613\u8d2d
p2444
sL2443L
V\u5373\u4f7f
p2445
sL2444L
V\u5b9e
p2446
sL2445L
V\u9996\u6b3e
p2447
sL2446L
V\u89e3\u91ca
p2448
sL2447L
V\u53c2\u4e0e
p2449
sL2448L
V\u81ea\u884c\u8f66
p2450
sL2449L
V\u5145\u8db3
p2451
sL2450L
V\u4f18\u52bf
p2452
sL2451L
V\u53d8\u5c0f
p2453
sL2452L
V\u516d\u5929
p2454
sL2453L
V\u8d1f\u503c
p2455
sL2454L
V\u8001\u5a46
p2456
sL2455L
V\u5468\u672b
p2457
sL2456L
V\u591a\u6708
p2458
sL2457L
V\u540e\u53f0
p2459
sL2458L
V\u4e94\u4e2a
p2460
sL2459L
V\u591a\u5929
p2461
sL2460L
V\u8fd4\u5230
p2462
sL2461L
Vqqcom
p2463
sL2462L
V\u4e0d\u6765
p2464
sL2463L
V\u5904\u4e8e
p2465
sL2464L
V\u63a5\u89e6
p2466
sL2465L
V\u5230\u8fbe
p2467
sL2466L
V\u4ea4\u94b1
p2468
sL2467L
V\u5176\u4f59
p2469
sL2468L
V\u80fd\u529e
p2470
sL2469L
V\u4e2d\u95f4
p2471
sL2470L
V\u600e\u529e
p2472
sL2471L
V\u4fe9
p2473
sL2472L
V\u5ef6\u7f13
p2474
sL2473L
V\u4e86\u5bf9
p2475
sL2474L
V\u4ee3\u66ff
p2476
sL2475L
V\u6362\u8fc7\u6765
p2477
sL2476L
V\u516b\u767e\u591a
p2478
sL2477L
V\u8fd9\u6837\u7684\u8bdd
p2479
sL2478L
V\u4e2a\u4eba\u8d26\u6237
p2480
sL2479L
V\u4e0d\u660e
p2481
sL2480L
V\u5c31\u7528
p2482
sL2481L
V\u8bc1\u4e66
p2483
sL2482L
V\u65f6\u4faf
p2484
sL2483L
V\u7406\u8d22
p2485
sL2484L
V\u65f6\u95f4\u6bb5
p2486
sL2485L
V\u53d7\u5230\u9650\u5236
p2487
sL2486L
V\u8682\u8681\u91d1\u670d
p2488
sL2487L
V\u4e07\u591a
p2489
sL2488L
V\u5e74\u524d
p2490
sL2489L
V\u6309\u63ed
p2491
sL2490L
V\u7b2c\u4e8c
p2492
sL2491L
V\u4e0d\u9000
p2493
sL2492L
V\u7f51\u5740
p2494
sL2493L
V\u4e8c\u5341
p2495
sL2494L
V\u7f51\u4e0a\u94f6\u884c
p2496
sL2495L
V\u81f3\u5c11
p2497
sL2496L
V\u9884
p2498
sL2497L
V\u5168\u6c11
p2499
sL2498L
V\u8981\u7d27
p2500
sL2499L
V\u88ab\u76d7
p2501
s.