ccollections
OrderedDict
p0
(tRp1
VUNK_POS
p2
L0L
sVPAD_POS
p3
L1L
sVv
p4
L2L
sVx
p5
L3L
sVn
p6
L4L
sVr
p7
L5L
sVd
p8
L6L
sVuj
p9
L7L
sVc
p10
L8L
sVp
p11
L9L
sVm
p12
L10L
sVy
p13
L11L
sVul
p14
L12L
sVvn
p15
L13L
sVt
p16
L14L
sVf
p17
L15L
sVnr
p18
L16L
sVa
p19
L17L
sVl
p20
L18L
sVb
p21
L19L
sVnz
p22
L20L
sVq
p23
L21L
sVns
p24
L22L
sVad
p25
L23L
sVzg
p26
L24L
sVug
p27
L25L
sVeng
p28
L26L
sVan
p29
L27L
sVu
p30
L28L
sVj
p31
L29L
sVs
p32
L30L
sVud
p33
L31L
sVtg
p34
L32L
sVng
p35
L33L
sVi
p36
L34L
sVnrt
p37
L35L
sVnt
p38
L36L
sVdf
p39
L37L
sVz
p40
L38L
sVuz
p41
L39L
sVmq
p42
L40L
sVvg
p43
L41L
sVo
p44
L42L
sVyg
p45
L43L
sVh
p46
L44L
sVrr
p47
L45L
sVe
p48
L46L
sVg
p49
L47L
sVmg
p50
L48L
sVag
p51
L49L
sVk
p52
L50L
sVuv
p53
L51L
sVvd
p54
L52L
sVnrfg
p55
L53L
sVvq
p56
L54L
s.