ccollections
OrderedDict
p0
(tRp1
VUNK
p2
L0L
sVPAD
p3
L1L
sV\u82b1\u5457
p4
L2L
sV\u6211
p5
L3L
sV\u501f\u5457
p6
L4L
sV\u7684
p7
L5L
sV\u4e86
p8
L6L
sV\u5417
p9
L7L
sV\u8fd8
p10
L8L
sV\u600e\u4e48
p11
L9L
sV\u8fd8\u6b3e
p12
L10L
sV\u53ef\u4ee5
p13
L11L
sV\u8682\u8681
p14
L12L
sV\u7528
p15
L13L
sV\u4e3a\u4ec0\u4e48
p16
L14L
sV\u989d\u5ea6
p17
L15L
sV\u662f
p18
L16L
sV\u5206\u671f
p19
L17L
sV\u5f00\u901a
p20
L18L
sV*
p21
L19L
sV\u94b1
p22
L20L
sV\u4e0d\u80fd
p23
L21L
sV\u80fd
p24
L22L
sV\u6ca1\u6709
p25
L23L
sV\u6709
p26
L24L
sV\u4e0d
p27
L25L
sV\u4ec0\u4e48
p28
L26L
sV\u4f7f\u7528
p29
L27L
sV\u5728
p30
L28L
sV\u652f\u4ed8\u5b9d
p31
L29L
sV\u4e0d\u4e86
p32
L30L
sV\u4ed8\u6b3e
p33
L31L
sV\u652f\u4ed8
p34
L32L
sV\u4f1a
p35
L33L
sV\u591a\u5c11
p36
L34L
sV\u6708
p37
L35L
sV\u903e\u671f
p38
L36L
sV\u5230
p39
L37L
sV\u663e\u793a
p40
L38L
sV\u63d0\u524d
p41
L39L
sV\u73b0\u5728
p42
L40L
sV\u540e
p43
L41L
sV\u8981
p44
L42L
sV\u6ca1
p45
L43L
sV\u9000\u6b3e
p46
L44L
sV\u94f6\u884c\u5361
p47
L45L
sV\u65f6\u5019
p48
L46L
sV\u6536\u6b3e
p49
L47L
sV\u81ea\u52a8
p50
L48L
sV\u7533\u8bf7
p51
L49L
sV\u5173\u95ed
p52
L50L
sV\u8fd9\u4e2a
p53
L51L
sV\u548c
p54
L52L
sV\u5982\u4f55
p55
L53L
sV\u501f
p56
L54L
sV\u5df2\u7ecf
p57
L55L
sV\u600e\u4e48\u529e
p58
L56L
sV\u4e00\u4e2a
p59
L57L
sV\u90fd
p60
L58L
sV\u8d26\u5355
p61
L59L
sV\u4e48
p62
L60L
sV\u6dd8\u5b9d
p63
L61L
sV\u5f71\u54cd
p64
L62L
sV\u4e70
p65
L63L
sV\u4e34\u65f6
p66
L64L
sV\u8d26\u53f7
p67
L65L
sV\u8fd8\u6e05
p68
L66L
sV\u5c31
p69
L67L
sV\u8fd8\u662f
p70
L68L
sV\u91cc
p71
L69L
sV\u60f3
p72
L70L
sV\u5229\u606f
p73
L71L
sV\u7ed1\u5b9a
p74
L72L
sV\u53f7
p75
L73L
sV\u4e0a
p76
L74L
sV\u4fe1\u7528\u5361
p77
L75L
sV\u4f59\u989d\u5b9d
p78
L76L
sV\u652f\u6301
p79
L77L
sV\u628a
p80
L78L
sV\u4f46\u662f
p81
L79L
sV\u624b\u7eed\u8d39
p82
L80L
sV\u6263
p83
L81L
sV\u7f51\u5546\u8d37
p84
L82L
sV\u53d6\u6d88
p85
L83L
sV\u5546\u5bb6
p86
L84L
sV\u6263\u6b3e
p87
L85L
sV\u7801
p88
L86L
sV\u7ed9
p89
L87L
sV\u4e2a
p90
L88L
sV\u6536\u94b1
p91
L89L
sV\u5206
p92
L90L
sV\u6062\u590d
p93
L91L
sV\u4e1c\u897f
p94
L92L
sV\u5b8c
p95
L93L
sV\u4f59\u989d
p96
L94L
sV\u9700\u8981
p97
L95L
sV\u600e\u6837
p98
L96L
sV\u6700\u4f4e
p99
L97L
sV\u624b\u673a
p100
L98L
sV\u662f\u4e0d\u662f
p101
L99L
sV\u8fd8\u6b3e\u65e5
p102
L100L
sV\u4e5f
p103
L101L
sV\u8d26\u6237
p104
L102L
sV\u624b\u673a\u53f7
p105
L103L
sV\u54ea\u91cc
p106
L104L
sV\u6d88\u8d39
p107
L105L
sV\u4fe1\u7528
p108
L106L
sV\u624d\u80fd
p109
L107L
sV\u8fd8\u6709
p110
L108L
sV\u591a
p111
L109L
sV\u591a\u4e45
p112
L110L
sV\u51bb\u7ed3
p113
L111L
sV\u53ea\u80fd
p114
L112L
sV\u8d26
p115
L113L
sV\u91d1\u989d
p116
L114L
sV\u9000
p117
L115L
sV\u4e4b\u524d
p118
L116L
sV\u5df2
p119
L117L
sV\u4e0d\u7528
p120
L118L
sV\u4e0d\u662f
p121
L119L
sV\u501f\u6b3e
p122
L120L
sV\u6362
p123
L121L
sV\u91cc\u9762
p124
L122L
sV\u63d0\u5347
p125
L123L
sV\u518d
p126
L124L
sV\u4e00\u6b21
p127
L125L
sV\u6b3e
p128
L126L
sV\u4eca\u5929
p129
L127L
sV\u8bf4
p130
L128L
sV\u88ab
p131
L129L
sV\u561b
p132
L130L
sV\u53e6
p133
L131L
sV\u5f00
p134
L132L
sV\u8bbe\u7f6e
p135
L133L
sV\u671f
p136
L134L
sV\u624d
p137
L135L
sV\u5e2e
p138
L136L
sV\u5206\u671f\u4ed8\u6b3e
p139
L137L
sV\u4ed8
p140
L138L
sV\u6210\u529f
p141
L139L
sV\u8bb0\u5f55
p142
L140L
sV\u8fd8\u8981
p143
L141L
sV\u5982\u679c
p144
L142L
sV\u5143
p145
L143L
sV\u63d0\u793a
p146
L144L
sV\u610f\u601d
p147
L145L
sV\u7b97
p148
L146L
sV\u4ece
p149
L147L
sV\u4ee5\u524d
p150
L148L
sV\u6536
p151
L149L
sV\u8bdd\u8d39
p152
L150L
sV\u63d0\u989d
p153
L151L
sV\u65e0\u6cd5
p154
L152L
sV\u4e00\u5929
p155
L153L
sV\u53bb
p156
L154L
sV\u53c8
p157
L155L
sV\u65f6\u95f4
p158
L156L
sV\u672a
p159
L157L
sV\u600e\u4e48\u56de\u4e8b
p160
L158L
sV\u4e0d\u5230
p161
L159L
sV\u4ea4
p162
L160L
sV\u4e3a\u5565
p163
L161L
sV\u8eab\u4efd\u8bc1
p164
L162L
sV\u8fc7
p165
L163L
sV\u627e
p166
L164L
sV\u4e0d\u4f1a
p167
L165L
sV\u8fd9
p168
L166L
sV\u4e4b\u540e
p169
L167L
sV\u4e0b\u4e2a\u6708
p170
L168L
sV\u65e5\u671f
p171
L169L
sV\u53f7\u7801
p172
L170L
sV\u54ea
p173
L171L
sV\u5440
p174
L172L
sV\u90a3
p175
L173L
sV\u901a\u8fc7
p176
L174L
sV\u79ef\u5206
p177
L175L
sV\u8ba9
p178
L176L
sV\u70b9
p179
L177L
sV\u770b
p180
L178L
sV\u5427
p181
L179L
sV\u4ee5\u540e
p182
L180L
sV\u9000\u56de
p183
L181L
sV\u600e\u4e48\u6837
p184
L182L
sV\u5bf9
p185
L183L
sV\u5145\u503c
p186
L184L
sV\u4e00\u76f4
p187
L185L
sV\u4e00\u6837
p188
L186L
sV\u7535\u8d39
p189
L187L
sV\u514d\u606f
p190
L188L
sV\u6bcf\u4e2a
p191
L189L
sV\u4e00\u4e2a\u6708
p192
L190L
sV\u5230\u671f
p193
L191L
sV\u4f60
p194
L192L
sV\u6bcf\u6708
p195
L193L
sV\u501f\u94b1
p196
L194L
sV\u6539
p197
L195L
sV\u8d2d\u7269
p198
L196L
sV\u6761\u4ef6
p199
L197L
sV\u4f46
p200
L198L
sV\u7ea2\u5305
p201
L199L
sV\u7136\u540e
p202
L200L
sV\u53ea\u6709
p203
L201L
sV\u62bc\u91d1
p204
L202L
sV\u5bc6\u7801
p205
L203L
sV\u662f\u5426
p206
L204L
sV\u5c31\u662f
p207
L205L
sV\u4e8c\u7ef4\u7801
p208
L206L
sV\u9650\u5236
p209
L207L
sV\u624b\u673a\u53f7\u7801
p210
L208L
sV\u81ea\u5df1
p211
L209L
sV\u77ed\u4fe1
p212
L210L
sV\u9650\u989d
p213
L211L
sV\u4e00\u4e0b
p214
L212L
sV\u53ef\u662f
p215
L213L
sV\u6263\u94b1
p216
L214L
sV\u4e3a
p217
L215L
sV\u4e24\u4e2a
p218
L216L
sV\u53ef
p219
L217L
sV\u964d\u4f4e
p220
L218L
sV\u8ddf
p221
L219L
sV\u67e5\u8be2
p222
L220L
sV\u522b\u4eba
p223
L221L
sV\u82b1
p224
L222L
sV\u6388\u6743
p225
L223L
sV\u4e0b
p226
L224L
sV\u4e00\u6b21\u6027
p227
L225L
sV\u77e5\u9053
p228
L226L
sV\u4ea4\u6613
p229
L227L
sV\u5237
p230
L228L
sV\u4e00
p231
L229L
sV\u5546\u54c1
p232
L230L
sV\u5361
p233
L231L
sV\u65f6
p234
L232L
sV\u67e5
p235
L233L
sV\u767b\u5f55
p236
L234L
sV\u4e0d\u591f
p237
L235L
sV\u5145
p238
L236L
sV\u67e5\u770b
p239
L237L
sV\u66f4\u6539
p240
L238L
sV\u63d0\u9192
p241
L239L
sV\u6ca1\u5230
p242
L240L
sV\u91cd\u65b0
p243
L241L
sV\u529f\u80fd
p244
L242L
sV\u4fe1\u606f
p245
L243L
sV\u4fee\u6539
p246
L244L
sV\u63d0\u73b0
p247
L245L
sV\u4e3a\u4f55
p248
L246L
sV\u5220\u9664
p249
L247L
sV\u7ed3\u6e05
p250
L248L
sV\u7cfb\u7edf
p251
L249L
sV\u63d0
p252
L250L
sV\u8fc7\u671f
p253
L251L
sV\u51e0\u53f7
p254
L252L
sV\u53ef\u7528
p255
L253L
sV\u76f4\u63a5
p256
L254L
sV\u8d39\u7528
p257
L255L
sV\u4e0d\u60f3
p258
L256L
sV\u51e0\u5929
p259
L257L
sV\u65b9\u5f0f
p260
L258L
sV\u9a8c\u8bc1\u7801
p261
L259L
sV\u4e3b\u52a8
p262
L260L
sV\u6709\u6ca1\u6709
p263
L261L
sV\u63d0\u9ad8
p264
L262L
sV\u6765
p265
L263L
sV\u8ba2\u5355
p266
L264L
sV\u6536\u5230
p267
L265L
sV\u829d\u9ebb\u4fe1\u7528
p268
L266L
sV\u5457
p269
L267L
sV\u670b\u53cb
p270
L268L
sV\u53ef\u4e0d\u53ef\u4ee5
p271
L269L
sV\u8d2d\u4e70
p272
L270L
sV\u8138
p273
L271L
sV\u4e0e
p274
L272L
sV\u5168\u90e8
p275
L273L
sV\u8d37\u6b3e
p276
L274L
sV\u5f53\u5929
p277
L275L
sV\u8f6c
p278
L276L
sV\u80fd\u7528
p279
L277L
sV\u786e\u8ba4
p280
L278L
sV\u6536\u8d27
p281
L279L
sV\u626b
p282
L280L
sV\u8bc4\u4f30
p283
L281L
sV\u9009\u62e9
p284
L282L
sV\u90a3\u4e48
p285
L283L
sV\u4e0a\u9762
p286
L284L
sV\u9000\u5230
p287
L285L
sV\u5355\u8f66
p288
L286L
sV\u770b\u5230
p289
L287L
sV\u66f4\u6362
p290
L288L
sV\u8fd8\u6b3e\u989d
p291
L289L
sV\u4e2d
p292
L290L
sV\u5f97
p293
L291L
sV\u64cd\u4f5c
p294
L292L
sV\u5929
p295
L293L
sV\u5151\u6362
p296
L294L
sV\u6700
p297
L295L
sV\u9000\u8d27
p298
L296L
sV\u9a8c\u8bc1
p299
L297L
sV\u521a
p300
L298L
sV\u5374
p301
L299L
sV\u5b89\u5168
p302
L300L
sV\u53ea
p303
L301L
sV\u665a
p304
L302L
sV\u6ce8\u9500
p305
L303L
sV\u6ca1\u7528
p306
L304L
sV\u5ba1\u6838
p307
L305L
sV\u5173
p308
L306L
sV\u6b20\u6b3e
p309
L307L
sV\u8c03\u6574
p310
L308L
sV\u521a\u521a
p311
L309L
sV\u597d
p312
L310L
sV\u6700\u9ad8
p313
L311L
sV\u53e6\u5916
p314
L312L
sV\u98ce\u9669
p315
L313L
sV\u548b
p316
L314L
sV\u65e5
p317
L315L
sV\u626b\u7801
p318
L316L
sV\u6263\u9664
p319
L317L
sV\u706b\u8f66\u7968
p320
L318L
sV\u7f8e\u56e2
p321
L319L
sV\u6709\u94b1
p322
L320L
sV\u5148
p323
L321L
sV\u5e10\u53f7
p324
L322L
sV\u5931\u8d25
p325
L323L
sV\u6628\u5929
p326
L324L
sV\u53d8
p327
L325L
sV\u95ee
p328
L326L
sV\u5ea6
p329
L327L
sV\u7ee7\u7eed
p330
L328L
sV\u671f\u9650
p331
L329L
sV\u8fd9\u4e48
p332
L330L
sV\u51e0\u4e2a
p333
L331L
sV\u65b0
p334
L332L
sV\u7ebf\u4e0b
p335
L333L
sV\u6b20
p336
L334L
sV\u8d85\u5e02
p337
L335L
sV\u5fd8\u8bb0
p338
L336L
sV\u539f\u56e0
p339
L337L
sV\u8ba4\u8bc1
p340
L338L
sV\u8fdb\u53bb
p341
L339L
sV\u5fae\u4fe1
p342
L340L
sV\u53cc
p343
L341L
sV\u5356\u5bb6
p344
L342L
sV\u7b26\u5408
p345
L343L
sV\u4e0a\u4e2a\u6708
p346
L344L
sV\u8d1f
p347
L345L
sV\u5b58\u5728
p348
L346L
sV\u4ea7\u751f
p349
L347L
sV\u5c11
p350
L348L
sV\u653e\u6b3e
p351
L349L
sV\u60c5\u51b5
p352
L350L
sV\u518d\u6b21
p353
L351L
sV\u4ed6
p354
L352L
sV\u95ee\u9898
p355
L353L
sV\u521a\u624d
p356
L354L
sV\u53d8\u6210
p357
L355L
sV\u9875\u9762
p358
L356L
sV\u4e0d\u884c
p359
L357L
sV\u8fd4\u73b0
p360
L358L
sV\u9ad8
p361
L359L
sV\u8be5
p362
L360L
sV\u7684\u8bdd
p363
L361L
sV\u516d\u4e2a\u6708
p364
L362L
sV\u6ef4\u6ef4
p365
L363L
sV\u4eba
p366
L364L
sV\u89e3\u9664
p367
L365L
sV\u4e0d\u8db3
p368
L366L
sV\u53cc\u5341
p369
L367L
sV\u4e00\u7b14
p370
L368L
sV\u8bf7
p371
L369L
sV\u829d\u9ebb
p372
L370L
sV\u6536\u4e0d\u5230
p373
L371L
sV\u6253\u5f00
p374
L372L
sV\u51fa\u6765
p375
L373L
sV\u6d3b\u52a8
p376
L374L
sV\u6309
p377
L375L
sV\u5f00\u82b1
p378
L376L
sV\u4e00\u671f
p379
L377L
sV\u5238
p380
L378L
sV\u900f\u652f
p381
L379L
sV\u5f53\u6708
p382
L380L
sV\u5e97\u94fa
p383
L381L
sV\u51fa
p384
L382L
sV\u5566
p385
L383L
sV\u524d
p386
L384L
sV\u5bc6\u4ed8
p387
L385L
sV\u5176\u4ed6
p388
L386L
sV\u5207\u6362
p389
L387L
sV\u5173\u4e86
p390
L388L
sV\u4e0d\u89c1
p391
L389L
sV\u670d\u52a1\u8d39
p392
L390L
sV\u4e00\u8d77
p393
L391L
sV\u9080\u8bf7
p394
L392L
sV\u7535\u8111
p395
L393L
sV\u5fc5\u987b
p396
L394L
sV\u4ee3\u4ed8
p397
L395L
sV\u54ea\u4e9b
p398
L396L
sV\u600e\u4e48\u5f04
p399
L397L
sV\u539f\u6765
p400
L398L
sV\u6700\u540e
p401
L399L
sV\u6b63\u5e38
p402
L400L
sV\u4e0d\u8981
p403
L401L
sV\u901a\u77e5
p404
L402L
sV\u5173\u6389
p405
L403L
sV\u4e00\u5e74
p406
L404L
sV\u5173\u7cfb
p407
L405L
sV\u505a
p408
L406L
sV\u9886
p409
L407L
sV\u670d\u52a1
p410
L408L
sV\u4f4e
p411
L409L
sV\u5347\u7ea7
p412
L410L
sV\u8f6c\u5230
p413
L411L
sV\u80fd\u5426
p414
L412L
sV\u8001
p415
L413L
sV\u94f6\u884c
p416
L414L
sV\u4f60\u4eec
p417
L415L
sV\u5929\u732b
p418
L416L
sV\u51fa\u73b0
p419
L417L
sV\u62bd\u5956
p420
L418L
sV\u8d85\u8fc7
p421
L419L
sV\u9886\u53d6
p422
L420L
sV\u7f34\u8d39
p423
L421L
sV\u51fa\u8d26
p424
L422L
sV\u6d25\u8d34
p425
L423L
sV\u63a8\u8fdf
p426
L424L
sV\u533a\u522b
p427
L425L
sV\u4e24\u6b21
p428
L426L
sV\u4eba\u8138\u8bc6\u522b
p429
L427L
sV\u5ba2\u6237
p430
L428L
sV\u591a\u957f\u65f6\u95f4
p431
L429L
sV\u6ee1\u8db3
p432
L430L
sV\u8d1f\u9762
p433
L431L
sV\u7a81\u7136
p434
L432L
sV\u7e41\u5fd9
p435
L433L
sV\u672c\u6708
p436
L434L
sV\u5f00\u59cb
p437
L435L
sV\u660e\u7ec6
p438
L436L
sV\u51e0\u6b21
p439
L437L
sV\u6ce8\u518c
p440
L438L
sV\u6263\u8d39
p441
L439L
sV\u5546\u6237
p442
L440L
sV\u901a\u8baf\u5f55
p443
L441L
sV\u5ef6\u671f
p444
L442L
sV\u89e3\u51bb
p445
L443L
sV\u8bc1\u660e
p446
L444L
sV\u6309\u65f6
p447
L445L
sV\u603b\u989d
p448
L446L
sV\u60a8
p449
L447L
sV\u90a3\u91cc
p450
L448L
sV\u597d\u53cb
p451
L449L
sV\u7ed1
p452
L450L
sV\u6ca1\u6536
p453
L451L
sV\u5171\u4eab
p454
L452L
sV\u522b\u7684
p455
L453L
sV\u4e0b\u6708
p456
L454L
sV\u767b\u9646
p457
L455L
sV\u53eb
p458
L456L
sV\u5b66\u5386
p459
L457L
sV\u51e0\u70b9
p460
L458L
sV\u505c\u7528
p461
L459L
sV\u56e0\u4e3a
p462
L460L
sV\u6536\u53d6
p463
L461L
sV\u53e3\u7891
p464
L462L
sV\u660e\u5929
p465
L463L
sV\u8d1f\u6570
p466
L464L
sV\u6708\u4efd
p467
L465L
sV\u7f51\u5546\u94f6\u884c
p468
L466L
sV\u5f00\u542f
p469
L467L
sV\u8ba1\u7b97
p470
L468L
sV\u5c0f\u5fc3
p471
L469L
sV\u6536\u8d39
p472
L470L
sV\u5e10
p473
L471L
sV\u4fe1\u8a89
p474
L472L
sV\u5168\u989d
p475
L473L
sV\u540c\u65f6
p476
L474L
sV\u4e70\u5bb6
p477
L475L
sV\u6b21
p478
L476L
sV\u5e94\u8be5
p479
L477L
sV\u9884\u671f
p480
L478L
sV\u51e0\u671f
p481
L479L
sV\u964d
p482
L480L
sV\u5904\u7406
p483
L481L
sV\u6389
p484
L482L
sV\u624b\u52a8
p485
L483L
sV\u5e97
p486
L484L
sV\u4ee5
p487
L485L
sV\u5e10\u5355
p488
L486L
sV\u6253\u8f66
p489
L487L
sV\u5c06
p490
L488L
sV\u5c3d\u60c5
p491
L489L
sV\u89e3\u7ed1
p492
L490L
sV\u529e\u6cd5
p493
L491L
sV\u6bcf\u5929
p494
L492L
sV\u4e24\u5929
p495
L493L
sV\u4e70\u624b\u673a
p496
L494L
sV\u4e00\u90e8\u5206
p497
L495L
sV\u6240\u6709
p498
L496L
sV\u8863\u670d
p499
L497L
sV\u5b83
p500
L498L
sV\u7b2c\u4e00\u6b21
p501
L499L
sV\u91cd\u590d
p502
L500L
sV\u5b9e\u4f53\u5e97
p503
L501L
sV\u8f6c\u5165
p504
L502L
sV\u5361\u91cc
p505
L503L
sV\u6210
p506
L504L
sV\u5e94
p507
L505L
sV\u60f3\u7528
p508
L506L
sV\u66f4\u65b0
p509
L507L
sV\u5269\u4e0b
p510
L508L
sV\u5ef6\u8fdf
p511
L509L
sV\u5269\u4f59
p512
L510L
sV\u5fd8
p513
L511L
sV\u6da8
p514
L512L
sV\u4e5d\u53f7
p515
L513L
sV\u6682\u65f6
p516
L514L
sV\u9000\u51fa
p517
L515L
sV\u660e\u660e
p518
L516L
sV\u54ea\u4e2a
p519
L517L
sV\u5916\u5356
p520
L518L
sV\u4e00\u534a
p521
L519L
sV\u505c
p522
L520L
sV\u6253\u4e0d\u5f00
p523
L521L
sV\u6bcf\u6b21
p524
L522L
sV\u6bd4
p525
L523L
sV\u8fd8\u6b3e\u671f
p526
L524L
sV\u8fd9\u7b14
p527
L525L
sV\u4e0d\u53ef
p528
L526L
sV\u5b9e\u540d
p529
L527L
sV\u4e09\u4e2a
p530
L528L
sV\u7535\u8bdd
p531
L529L
sV\u9a6c\u4e0a
p532
L530L
sV\u8425\u4e1a\u6267\u7167
p533
L531L
sV\u4f1a\u5458
p534
L532L
sV\u4e86\u80fd
p535
L533L
sV\u673a\u7968
p536
L534L
sV\u592a
p537
L535L
sV\u4e00\u822c
p538
L536L
sV\u672c\u91d1
p539
L537L
sV\u627e\u5230
p540
L538L
sV\u6709\u4e2a
p541
L539L
sV\u987e\u5ba2
p542
L540L
sV\u90e8\u5206
p543
L541L
sV\u9000\u56de\u6765
p544
L542L
sV\u60f3\u8981
p545
L543L
sV\u4e0a\u4f20
p546
L544L
sV\u5883\u5916
p547
L545L
sV\u5b8c\u5584
p548
L546L
sV\u989d
p549
L547L
sV\u8d39
p550
L548L
sV\u7528\u4e8e
p551
L549L
sV\u5ba2\u670d
p552
L550L
sV\u600e\u6837\u624d\u80fd
p553
L551L
sV\u6700\u591a
p554
L552L
sV\u5173\u8054
p555
L553L
sV\u8d44\u6599
p556
L554L
sV\u529e
p557
L555L
sV\u4e07
p558
L556L
sV\u53d1
p559
L557L
sV\u603b
p560
L558L
sV\u8981\u6c42
p561
L559L
sV\u5565
p562
L560L
sV\u600e
p563
L561L
sV\u603b\u662f
p564
L562L
sV\u8f6c\u8d26
p565
L563L
sV\u6d41\u91cf
p566
L564L
sV\u6216\u8005
p567
L565L
sV\u770b\u4e0d\u5230
p568
L566L
sV\u90ae\u7bb1
p569
L567L
sV\u5411
p570
L568L
sV\u5341\u4e8c
p571
L569L
sV\u5165\u53e3
p572
L570L
sV\u6c38\u4e45
p573
L571L
sV\u4e2a\u4eba
p574
L572L
sV\u4fe1\u7528\u5ea6
p575
L573L
sV\u6e38\u620f
p576
L574L
sV\u6362\u6210
p577
L575L
sV\u6469\u62dc
p578
L576L
sV\u662f\u4ece
p579
L577L
sV\u8fdb\u884c
p580
L578L
sV\u96f6\u65f6
p581
L579L
sV\u9152\u5e97
p582
L580L
sV\u5b8c\u6b3e
p583
L581L
sV\u8c03
p584
L582L
sV\u6539\u6210
p585
L583L
sV\u4ed8\u94b1
p586
L584L
sV\u770b\u770b
p587
L585L
sV\u6216
p588
L586L
sV\u5229\u7387
p589
L587L
sV\u672c\u4eba
p590
L588L
sV\u51b2
p591
L589L
sV\u8fd9\u6837
p592
L590L
sV\u4ee3\u6263
p593
L591L
sV\u52a0\u6cb9
p594
L592L
sV\u5e74
p595
L593L
sV\u5355
p596
L594L
sV\u8fd8\u4e48
p597
L595L
sV\u5f53\u524d
p598
L596L
sV\u5757\u94b1
p599
L597L
sV\u56de
p600
L598L
sV\u8f93\u5165
p601
L599L
sV\u82b1\u8d1d
p602
L600L
sV\u5c0f
p603
L601L
sV\u5bf9\u65b9
p604
L602L
sV\u5565\u65f6\u5019
p605
L603L
sV\u9009\u9879
p606
L604L
sV\u73b0\u91d1
p607
L605L
sV\u51cf
p608
L606L
sV\u4f53\u9a8c
p609
L607L
sV\u5377
p610
L608L
sV\u6700\u957f
p611
L609L
sV\u70b9\u51fb
p612
L610L
sV\u514d\u8d39
p613
L611L
sV\u4e00\u5b9a
p614
L612L
sV\u540c\u4e00\u4e2a
p615
L613L
sV\u5504
p616
L614L
sV\u4e0d\u8ba9
p617
L615L
sV\u5e10\u6237
p618
L616L
sV\u7b7e\u7ea6
p619
L617L
sV\u6309\u671f
p620
L618L
sV\u6682
p621
L619L
sV\u4e0a\u4e70
p622
L620L
sV\u672c
p623
L621L
sV\u56fa\u5b9a
p624
L622L
sV\u751f\u6d3b
p625
L623L
sV\u591f
p626
L624L
sV\u5f88
p627
L625L
sV\u5757
p628
L626L
sV\u5c0f\u65f6
p629
L627L
sV\u5f04
p630
L628L
sV\u56de\u6765
p631
L629L
sV\u9519
p632
L630L
sV\u9001
p633
L631L
sV\u4e0d\u540c
p634
L632L
sV\u8fd0\u8d39
p635
L633L
sV\u5f53\u9762
p636
L634L
sV\u53f7\u7528
p637
L635L
sV\u4e22
p638
L636L
sV\u9009
p639
L637L
sV\u800c\u4e14
p640
L638L
sV\u6211\u7528
p641
L639L
sV\u516d\u671f
p642
L640L
sV\u5168\u6b3e
p643
L641L
sV\u6211\u4eec
p644
L642L
sV\u4e0d\u597d
p645
L643L
sV\u6240\u4ee5
p646
L644L
sV\u5c01
p647
L645L
sV\u4e0a\u7528
p648
L646L
sV\u4e09\u671f
p649
L647L
sV\u6b21\u6570
p650
L648L
sV\u6d88\u9664
p651
L649L
sV\u4f1a\u6263
p652
L650L
sV\u6743\u9650
p653
L651L
sV\u514d
p654
L652L
sV\u8eab\u4efd
p655
L653L
sV\u800c
p656
L654L
sV\u8fd9\u8fb9
p657
L655L
sV\u7f51\u4e0a
p658
L656L
sV\u4e00\u4e07
p659
L657L
sV\u7528\u6765
p660
L658L
sV\u6c34\u7535\u8d39
p661
L659L
sV\u5e76
p662
L660L
sV\u665a\u4e0a
p663
L661L
sV\u540e\u6765
p664
L662L
sV\u516c\u79ef\u91d1
p665
L663L
sV\u62ff
p666
L664L
sV\u8fdf
p667
L665L
sV\u4f18\u5148
p668
L666L
sV\u62bd
p669
L667L
sV\u4ea7\u54c1
p670
L668L
sV\u8c03\u4f4e
p671
L669L
sV\u7b49
p672
L670L
sV\u9000\u8fd8
p673
L671L
sV\u987a\u5e8f
p674
L672L
sV\u5347
p675
L673L
sV\u6ca1\u6cd5
p676
L674L
sV\u7528\u6237
p677
L675L
sV\u7ecf\u5e38
p678
L676L
sV\u51cf\u5c11
p679
L677L
sV\u4e0a\u6b21
p680
L678L
sV\u5feb
p681
L679L
sV\u4f18\u60e0\u5238
p682
L680L
sV\u8d44\u683c
p683
L681L
sV\u884c
p684
L682L
sV\u5e2e\u5fd9
p685
L683L
sV\u54a8\u8be2
p686
L684L
sV\u8fdb
p687
L685L
sV\u9664\u4e86
p688
L686L
sV\u540e\u9762
p689
L687L
sV\u6700\u8fdf
p690
L688L
sV\u548b\u529e
p691
L689L
sV\u5c65\u7ea6
p692
L690L
sV\u8d27
p693
L691L
sV\u54ea\u513f
p694
L692L
sV\u6253
p695
L693L
sV\u4e00\u5171
p696
L694L
sV\u8fbe\u5230
p697
L695L
sV\u597d\u4e45
p698
L696L
sV\u4f18\u60e0
p699
L697L
sV\u5148\u606f
p700
L698L
sV\u501f\u51fa\u6765
p701
L699L
sV\u8bb0\u5f97
p702
L700L
sV\u4e00\u81f4
p703
L701L
sV\u9996\u9009
p704
L702L
sV\u90a3\u4e9b
p705
L703L
sV\u5dee
p706
L704L
sV\u957f
p707
L705L
sV\u6ca1\u94b1
p708
L706L
sV\u529e\u7406
p709
L707L
sV\u4e00\u5f20
p710
L708L
sV\u589e\u52a0
p711
L709L
sV\u5185
p712
L710L
sV\u8fdb\u5165
p713
L711L
sV\u4e45
p714
L712L
sV\u4e00\u70b9
p715
L713L
sV\u8981\u662f
p716
L714L
sV\u5730\u65b9
p717
L715L
sV\u4eba\u5de5
p718
L716L
sV\u9ebb\u70e6
p719
L717L
sV\u8fd8\u4e0a
p720
L718L
sV\u80fd\u5206
p721
L719L
sV\u8fd9\u91cc
p722
L720L
sV\u5168
p723
L721L
sV\u7f34
p724
L722L
sV\u9884\u7559
p725
L723L
sV\u7b2c\u4e00\u671f
p726
L724L
sV\u6ca1\u4e86
p727
L725L
sV\u5546\u5e97
p728
L726L
sV\u65e0
p729
L727L
sV\u9669
p730
L728L
sV\u8fdb\u4e0d\u53bb
p731
L729L
sV\u4e0a\u53bb
p732
L730L
sV\u6d88\u5931
p733
L731L
sV\u5f53\u65f6
p734
L732L
sV\u8f6c\u79fb
p735
L733L
sV\u8c22\u8c22
p736
L734L
sV\u9690\u85cf
p737
L735L
sV\u5b9d
p738
L736L
sV\u786e\u5b9a
p739
L737L
sV\u5355\u7b14
p740
L738L
sV\u82f9\u679c
p741
L739L
sV\u597d\u5904
p742
L740L
sV\u7740
p743
L741L
sV\u5b8c\u6210
p744
L742L
sV\u586b
p745
L743L
sV\u754c\u9762
p746
L744L
sV\u6b3e\u9879
p747
L745L
sV\u5ef6\u957f
p748
L746L
sV\u5e72\u561b
p749
L747L
sV\u7b97\u4e0d\u7b97
p750
L748L
sV\u53ef\u80fd
p751
L749L
sV\u8d85\u51fa
p752
L750L
sV\u9000\u7968
p753
L751L
sV\u79df
p754
L752L
sV\u4e00\u53f7
p755
L753L
sV\u50a8\u84c4\u5361
p756
L754L
sV\u4e86\u4f1a
p757
L755L
sV\u5c3e\u6b3e
p758
L756L
sV\u4e00\u5206\u94b1
p759
L757L
sV\u5927
p760
L758L
sV\u6ee1
p761
L759L
sV\u67e5\u4e0d\u5230
p762
L760L
sV\u5b9e\u9645
p763
L761L
sV\u4e0d\u8d77
p764
L762L
sV\u586b\u5199
p765
L763L
sV\u6700\u8fd1
p766
L764L
sVa
p767
L765L
sV\u4e09\u5929
p768
L766L
sV\u8d85
p769
L767L
sV\u53ea\u8981
p770
L768L
sV\u76d2\u5b50
p771
L769L
sV\u8fd8\u7ed9
p772
L770L
sV\u62b5\u6263
p773
L771L
sV\u4e0d\u4e0a
p774
L772L
sV\u56de\u4e8b
p775
L773L
sV\u5bfc\u81f4
p776
L774L
sV\u641e
p777
L775L
sV\u4f4f
p778
L776L
sV\u8bc6\u522b
p779
L777L
sV\u64a4\u9500
p780
L778L
sV\u8fd9\u4e48\u4e45
p781
L779L
sV\u8fd9\u6b21
p782
L780L
sV\u63d0\u4ea4
p783
L781L
sV\u7b14
p784
L782L
sV\u5df1
p785
L783L
sV\u597d\u50cf
p786
L784L
sV\u997f
p787
L785L
sV\u7b2c\u4e00\u4e2a
p788
L786L
sV\u80fd\u591f
p789
L787L
sV\u534a\u5e74
p790
L788L
sV\u53ef\u5426
p791
L789L
sV\u8bbf\u95ee
p792
L790L
sV\u4e86\u6b3e
p793
L791L
sV\u514d\u5355
p794
L792L
sV\u56de\u590d
p795
L793L
sV\u89e3\u51b3
p796
L794L
sV\u5b9a
p797
L795L
sV\u7f51
p798
L796L
sV\u670d\u52a1\u5546
p799
L797L
sV\u8054\u7cfb
p800
L798L
sV\u6dfb\u52a0
p801
L799L
sV\u672c\u6765
p802
L800L
sV\u4e2d\u5348
p803
L801L
sVapp
p804
L802L
sV\u8d44\u91d1
p805
L803L
sV\u7ed3\u679c
p806
L804L
sV\u90ae\u653f\u50a8\u84c4\u94f6\u884c
p807
L805L
sV\u501f\u4e86
p808
L806L
sV\u623f\u8d37
p809
L807L
sV\u8fd8\u94b1
p810
L808L
sV\u4e0a\u9650
p811
L809L
sV\u65e5\u5229\u7387
p812
L810L
sV\u5e01
p813
L811L
sV\u9700
p814
L812L
sV\u5468\u671f
p815
L813L
sV\u5341\u53f7
p816
L814L
sV\u8c01
p817
L815L
sV\u52a0
p818
L816L
sV\u90ae\u653f
p819
L817L
sV\u8d37
p820
L818L
sV\u968f\u65f6
p821
L819L
sV\u793c\u5305
p822
L820L
sV\u964d\u989d
p823
L821L
sV\u5341\u4e8c\u4e2a
p824
L822L
sV\u771f\u7684
p825
L823L
sV\u4e0d\u53d8
p826
L824L
sV\u4e00\u5343
p827
L825L
sV\u77ed\u671f
p828
L826L
sV\u95e8\u5e97
p829
L827L
sV\u7b26\u5408\u6761\u4ef6
p830
L828L
sV\u4e86\u8981
p831
L829L
sV\u5177\u4f53
p832
L830L
sV\u90ae\u653f\u50a8\u84c4
p833
L831L
sV\u6ca1\u7528\u8fc7
p834
L832L
sV\u4ed8\u6e05
p835
L833L
sV\u7801\u80fd
p836
L834L
sV\u7ffb\u500d
p837
L835L
sV\u673a\u4f1a
p838
L836L
sV\u63d0\u5230
p839
L837L
sV\u4e0b\u964d
p840
L838L
sV\u8d2d
p841
L839L
sV\u4ec0\u4e48\u6837
p842
L840L
sV\u540d\u4e0b
p843
L841L
sV\u5176\u5b83
p844
L842L
sV\u6709\u5173
p845
L843L
sV\u5565\u610f\u601d
p846
L844L
sV\u5fae\u8d37
p847
L845L
sV\u5145\u9519
p848
L846L
sV\u8fc7\u540e
p849
L847L
sV\u6570
p850
L848L
sV\u5927\u4e8e
p851
L849L
sV\u5ba2\u4eba
p852
L850L
sV\u5956\u52b1\u91d1
p853
L851L
sV\u5927\u6982
p854
L852L
sV\u53ea\u662f
p855
L853L
sVq
p856
L854L
sV\u5c31\u8981
p857
L855L
sV\u8f66\u7968
p858
L856L
sV\u4f7f
p859
L857L
sV\u89e3
p860
L858L
sV\u6700\u5927
p861
L859L
sV\u53d1\u77ed\u4fe1
p862
L860L
sV\u67e5\u4e0b
p863
L861L
sV\u6bcf\u671f
p864
L862L
sV\u65e7
p865
L863L
sV\u6708\u5e95
p866
L864L
sV\u5927\u989d
p867
L865L
sV\u6628\u665a
p868
L866L
sV\u8f6f\u4ef6
p869
L867L
sV\u4e0d\u7b26
p870
L868L
sV\u4e00\u6708
p871
L869L
sV\u8fd4\u56de
p872
L870L
sV\u53ca\u65f6
p873
L871L
sVb
p874
L872L
sVpass
p875
L873L
sV\u4f55\u65f6
p876
L874L
sV\u4eba\u8138
p877
L875L
sV\u5230\u5e95
p878
L876L
sV\u9ebd
p879
L877L
sV\u8fd8\u7528
p880
L878L
sV\u6fc0\u6d3b
p881
L879L
sV\u8ba2
p882
L880L
sV\u6bd4\u5982
p883
L881L
sV\u53d8\u5316
p884
L882L
sV\u4eac\u4e1c
p885
L883L
sV-
p886
L884L
sV\u627e\u56de
p887
L885L
sV\u7f34\u7eb3
p888
L886L
sV\u6682\u505c
p889
L887L
sV\u6539\u4e3a
p890
L888L
sV\u76ee\u524d
p891
L889L
sV\u6709\u6548\u671f
p892
L890L
sV\u7acb\u5373
p893
L891L
sV\u6362\u6b3e
p894
L892L
sV\u4e86\u7528
p895
L893L
sV\u5408\u5e76
p896
L894L
sV\u7b2c\u4e8c\u4e2a
p897
L895L
sV\u671f\u95f4
p898
L896L
sV\u5176\u4e2d
p899
L897L
sV\u7269\u54c1
p900
L898L
sV\u6709\u4e9b
p901
L899L
sV\u5e97\u5bb6
p902
L900L
sV\u6307
p903
L901L
sV\u6700\u5c11
p904
L902L
sV\u4e0a\u6708
p905
L903L
sV\u52b5
p906
L904L
sV\u957f\u65f6\u95f4
p907
L905L
sV\u4e1a\u52a1
p908
L906L
sV\u7aef
p909
L907L
sV\u82b1\u8d39
p910
L908L
sV\u5141\u8bb8
p911
L909L
sVqq
p912
L910L
sV\u83b7\u5f97
p913
L911L
sV\u89e3\u5f00
p914
L912L
sV\u6b20\u8d39
p915
L913L
sV\u5199
p916
L914L
sV\u6539\u53d8
p917
L915L
sV\u7f51\u8d37
p918
L916L
sV\u540c\u4e00
p919
L917L
sV\u4ec0
p920
L918L
sV\u662f\u7528
p921
L919L
sV\u5e94\u7528
p922
L920L
sV\u52a0\u6cb9\u7ad9
p923
L921L
sV\u89c4\u5b9a
p924
L922L
sV\u8fdb\u5ea6
p925
L923L
sV\u9ec4\u8f66
p926
L924L
sV\u70b9\u9519
p927
L925L
sV\u4ee3
p928
L926L
sV\u4e2d\u65ad
p929
L927L
sV\u767b
p930
L928L
sV\u5269
p931
L929L
sV\u67e5\u5230
p932
L930L
sV\u66f4
p933
L931L
sV\u6447
p934
L932L
sV\u4e8b
p935
L933L
sV\u5220\u6389
p936
L934L
sV\u586b\u9519
p937
L935L
sV\u9ed8\u8ba4
p938
L936L
sV\u5ef6\u540e
p939
L937L
sV\u7b2c\u4e8c\u6b21
p940
L938L
sV\u7b49\u989d
p941
L939L
sV\u4e86\u89e3
p942
L940L
sV\u8fde\u7eed
p943
L941L
sV\u6b20\u94b1
p944
L942L
sV\u8fd8\u8d26
p945
L943L
sV\u80fd\u6362
p946
L944L
sV\u80fd\u5230
p947
L945L
sV\u8d85\u989d
p948
L946L
sV\u603b\u5171
p949
L947L
sV\u4e0d\u6210
p950
L948L
sV\u653e\u5728
p951
L949L
sV\u4e24\u7b14
p952
L950L
sV\u4efb\u4f55
p953
L951L
sV\u6d88\u606f
p954
L952L
sV\u514d\u5bc6
p955
L953L
sV\u8f66
p956
L954L
sV\u8fd4
p957
L955L
sV\u5f53\u65e5
p958
L956L
sV\u6295\u8bc9
p959
L957L
sV\u9996\u6b21
p960
L958L
sV\u7f51\u5546
p961
L959L
sV\u8fdd\u7ea6
p962
L960L
sV\u5f88\u591a
p963
L961L
sV\u4eba\u5bb6
p964
L962L
sV\u9519\u8bef
p965
L963L
sV\u90a3\u5929
p966
L964L
sV\u73a9
p967
L965L
sV\u6e05
p968
L966L
sV\u4e86\u6709
p969
L967L
sV\u4fe1\u8a89\u5ea6
p970
L968L
sV\u5c0f\u84dd
p971
L969L
sV\u6210\u4e3a
p972
L970L
sV\u4e0d\u826f
p973
L971L
sV\u4ed6\u4eba
p974
L972L
sV\u7535\u8bdd\u53f7\u7801
p975
L973L
sV\u54ea\u91cc\u627e
p976
L974L
sV\u5e97\u91cc
p977
L975L
sV\u91cc\u8fb9
p978
L976L
sV\u4f59\u5229
p979
L977L
sV\u8f6c\u6362
p980
L978L
sV\u8d77\u6765
p981
L979L
sV\u4f01\u4e1a
p982
L980L
sV\u591a\u4e2a
p983
L981L
sV\u67e5\u67e5
p984
L982L
sV\u6e05\u9664
p985
L983L
sV\u5c5e\u4e8e
p986
L984L
sV\u53d1\u8d27
p987
L985L
sV\u4e94\u767e
p988
L986L
sV\u5e38\u7528
p989
L987L
sV\u770b\u4e0b
p990
L988L
sV\u94f6\u884c\u8d37\u6b3e
p991
L989L
sV\u5165\u8d26
p992
L990L
sV\u95ee\u95ee
p993
L991L
sV\u56de\u5230
p994
L992L
sV\u8fdd\u7ea6\u91d1
p995
L993L
sV\u770b\u89c1
p996
L994L
sV\u54c8\u7f57
p997
L995L
sV\u5982
p998
L996L
sV\u50cf
p999
L997L
sV\u4e0b\u8f7d
p1000
L998L
sV\u4e00\u767e
p1001
L999L
sV\u7684\u4e48
p1002
L1000L
sV\u4efb\u52a1
p1003
L1001L
sV\u4ea4\u8d39
p1004
L1002L
sV\u501f\u5b8c
p1005
L1003L
sV\u8bd5
p1006
L1004L
sV\u6807\u8bc6
p1007
L1005L
sV\u8bd5\u7528
p1008
L1006L
sV\u81f3
p1009
L1007L
sV\u4e0d\u7b97
p1010
L1008L
sV\u88ab\u6263
p1011
L1009L
sV\u6ca1\u6cd5\u7528
p1012
L1010L
sV\u8d27\u6b3e
p1013
L1011L
sV\u4e00\u4ef6
p1014
L1012L
sV\u5feb\u901f
p1015
L1013L
sV\u9000\u7ed9
p1016
L1014L
sV\u540c\u610f
p1017
L1015L
sV\u6bcf
p1018
L1016L
sV\u4ee5\u4e0a
p1019
L1017L
sV\u5f97\u5230
p1020
L1018L
sV\u6ca1\u4ec0\u4e48
p1021
L1019L
sV\u4e0b\u6b21
p1022
L1020L
sV\u626b\u63cf
p1023
L1021L
sV\u82b1\u94b1
p1024
L1022L
sV\u544a\u8bc9
p1025
L1023L
sV\u662f\u56e0\u4e3a
p1026
L1024L
sV\u5f00\u5177
p1027
L1025L
sV\u4e0b\u5348
p1028
L1026L
sV\u53d1\u751f
p1029
L1027L
sV\u4e0d\u8fc7
p1030
L1028L
sV\u6062\u590d\u6b63\u5e38
p1031
L1029L
sV\u53d8\u66f4
p1032
L1030L
sV\u4e0d\u7ba1
p1033
L1031L
sV\u7efc\u5408
p1034
L1032L
sV\u767b\u4e0d\u4e0a
p1035
L1033L
sV\u5546\u573a
p1036
L1034L
sV\u8d39\u7387
p1037
L1035L
sV\u8d70
p1038
L1036L
sV\u957f\u671f
p1039
L1037L
sV\u51fa\u884c
p1040
L1038L
sV\u501f\u8d1d
p1041
L1039L
sV\u7ed3\u7b97
p1042
L1040L
sV\u90a6
p1043
L1041L
sV\u4ef7\u683c
p1044
L1042L
sV\u5bc6
p1045
L1043L
sV\u597d\u591a
p1046
L1044L
sV\u5305\u62ec
p1047
L1045L
sV\u7269\u6d41
p1048
L1046L
sV\u591a\u6b21
p1049
L1047L
sV\u5bbd\u5e26
p1050
L1048L
sV\u54ea\u5929
p1051
L1049L
sV\u751f\u6210
p1052
L1050L
sV\u519c\u6751
p1053
L1051L
sV\u61c2
p1054
L1052L
sV\u5faa\u73af
p1055
L1053L
sV\u4ece\u6765
p1056
L1054L
sV\u5360\u7528
p1057
L1055L
sV\u62a5\u540d
p1058
L1056L
sV\u8fd4\u8fd8
p1059
L1057L
sV\u4ed6\u4eec
p1060
L1058L
sV\u5e74\u9f84
p1061
L1059L
sV\u4e70\u623f
p1062
L1060L
sV\u7533\u8bc9
p1063
L1061L
sV\u53d1\u73b0
p1064
L1062L
sV\u4e07\u5206\u4e4b
p1065
L1063L
sV\u6682\u65e0
p1066
L1064L
sV\u63d0\u53d6
p1067
L1065L
sV\u5047\u5982
p1068
L1066L
sV\u6807\u5fd7
p1069
L1067L
sV\u53d1\u7ea2\u5305
p1070
L1068L
sV\u73b0\u5b9e
p1071
L1069L
sV\u4e24\u671f
p1072
L1070L
sV\u60f3\u67e5
p1073
L1071L
sV\u540c
p1074
L1072L
sV\u51b2\u7a81
p1075
L1073L
sV\u5220
p1076
L1074L
sV\u6709\u7528
p1077
L1075L
sV\u80fd\u6536
p1078
L1076L
sV\u9000\u94b1
p1079
L1077L
sV\u63a5
p1080
L1078L
sV\u52a0\u6cb9\u5361
p1081
L1079L
sV\u5206\u94b1
p1082
L1080L
sV\u7528\u9014
p1083
L1081L
sV\u53ef\u501f
p1084
L1082L
sV\u5408\u540c
p1085
L1083L
sV\u548b\u6837
p1086
L1084L
sV\u8fc7\u6b3e
p1087
L1085L
sV\u53d6\u51fa
p1088
L1086L
sV\u62bd\u5230
p1089
L1087L
sV\u89c4\u5219
p1090
L1088L
sV\u89e3\u5c01
p1091
L1089L
sV\u501f\u4e0d
p1092
L1090L
sV\u65b9\u6cd5
p1093
L1091L
sV\u5230\u65f6\u5019
p1094
L1092L
sV\u8f93
p1095
L1093L
sV\u4f53\u73b0
p1096
L1094L
sV\u7968
p1097
L1095L
sV\u6253\u7535\u8bdd
p1098
L1096L
sV\u98de\u673a\u7968
p1099
L1097L
sV\u6162
p1100
L1098L
sV\u661f\u671f
p1101
L1099L
sV\u8bbe
p1102
L1100L
sV\u5728\u7ebf
p1103
L1101L
sV\u516c\u53f8
p1104
L1102L
sV\u671f\u6570
p1105
L1103L
sV\u4fe1\u7528\u793e
p1106
L1104L
sV\u7528\u94b1
p1107
L1105L
sV\u7b2c\u4e8c\u5929
p1108
L1106L
sV\u6b64
p1109
L1107L
sV\u5403\u996d
p1110
L1108L
sV\u8981\u8fd8
p1111
L1109L
sV\u5979
p1112
L1110L
sV\u5b58
p1113
L1111L
sV\u7801\u6536
p1114
L1112L
sV\u8bdd
p1115
L1113L
sV\u5ba2\u6237\u7aef
p1116
L1114L
sV\u5f20
p1117
L1115L
sV\u652f\u51fa
p1118
L1116L
sV\u4e0d\u6da8
p1119
L1117L
sV\u516c\u4ea4
p1120
L1118L
sV\u90a3\u8fb9
p1121
L1119L
sV\u4fbf\u5229\u5e97
p1122
L1120L
sV\u4e00\u4e9b
p1123
L1121L
sV\u7167\u7247
p1124
L1122L
sV\u7b14\u7b14
p1125
L1123L
sV\u7ecf
p1126
L1124L
sV\u501f\u8d37
p1127
L1125L
sV\u4e9b
p1128
L1126L
sV\u7535\u8bdd\u8d39
p1129
L1127L
sV\u53d7\u9650
p1130
L1128L
sV\u65e9\u4e0a
p1131
L1129L
sV\u4e70\u5355
p1132
L1130L
sV\u5f02\u5e38
p1133
L1131L
sV\u8fd8\u80fd
p1134
L1132L
sV\u6e05\u96f6
p1135
L1133L
sV\u8fdb\u4e0d\u4e86
p1136
L1134L
sV\u53c2\u52a0
p1137
L1135L
sV\u518d\u7528
p1138
L1136L
sV\u624b\u673a\u77ed\u4fe1
p1139
L1137L
sV\u5728\u7528
p1140
L1138L
sV\u5e73\u53f0
p1141
L1139L
sV\u5f53
p1142
L1140L
sV\u80fd\u91cf
p1143
L1141L
sV\u6e05\u695a
p1144
L1142L
sV\u65e5\u524d
p1145
L1143L
sV\u6c34\u7535
p1146
L1144L
sV\u826f\u597d
p1147
L1145L
sV\u7acb
p1148
L1146L
sV\u5f00\u4e86\u82b1
p1149
L1147L
sV\u62cd
p1150
L1148L
sV\u5e2e\u52a9
p1151
L1149L
sV\u540e\u679c
p1152
L1150L
sV\u6ca1\u53d8
p1153
L1151L
sV\u4e0d\u901a
p1154
L1152L
sV\u79ef\u5206\u6362
p1155
L1153L
sV\u9996\u9875
p1156
L1154L
sV\u72b6\u6001
p1157
L1155L
sV\u540d\u5b57
p1158
L1156L
sV\u6536\u56de
p1159
L1157L
sV\u8865\u5145
p1160
L1158L
sV\u60f3\u6362
p1161
L1159L
sV\u591a\u591a
p1162
L1160L
sV\u53cd\u5e94
p1163
L1161L
sV\u4e0b\u5355
p1164
L1162L
sV\u8fde
p1165
L1163L
sV\u6302\u5931
p1166
L1164L
sV\u5e72\u4ec0\u4e48
p1167
L1165L
sV\u53ea\u7528
p1168
L1166L
sV\u53d7
p1169
L1167L
sV\u540e\u624d
p1170
L1168L
sV\u6709\u65f6\u5019
p1171
L1169L
sV\u63d0\u4f9b
p1172
L1170L
sV\u5b66\u6821
p1173
L1171L
sV\u7a97\u53e3
p1174
L1172L
sV\u53d1\u5230
p1175
L1173L
sV\u6362\u53f7
p1176
L1174L
sV\u6539\u4e0d\u4e86
p1177
L1175L
sV\u5feb\u9012
p1178
L1176L
sV\u56fe\u6807
p1179
L1177L
sV\u4eab\u53d7
p1180
L1178L
sV\u8be6\u7ec6
p1181
L1179L
sV\u6309\u7167
p1182
L1180L
sV\u4e2a\u4eba\u4fe1\u7528
p1183
L1181L
sV\u963f
p1184
L1182L
sV\u6ca1\u8fd8
p1185
L1183L
sV\u4ed8\u8d26
p1186
L1184L
sV\u6ca1\u6263
p1187
L1185L
sV\u8fc7\u6765
p1188
L1186L
sV\u96f6\u94b1
p1189
L1187L
sV\u4e86\u60f3
p1190
L1188L
sV\u8fd9\u4e9b
p1191
L1189L
sV\u8f6c\u4e0d
p1192
L1190L
sV\u5f80
p1193
L1191L
sV\u6263\u6389
p1194
L1192L
sV\u5546
p1195
L1193L
sV\u6316
p1196
L1194L
sV\u540e\u671f
p1197
L1195L
sV\u63a5\u5165
p1198
L1196L
sV\u4ed8\u80fd
p1199
L1197L
sV\u5730\u5740
p1200
L1198L
sV\u89e3\u7b54
p1201
L1199L
sV\u73b0
p1202
L1200L
sV\u63d0\u6b3e
p1203
L1201L
sV\u6c38\u8fdc
p1204
L1202L
sV\u5bf9\u4e0d\u4e0a
p1205
L1203L
sV\u7a0d\u540e
p1206
L1204L
sV\u8d8a
p1207
L1205L
sV\u5230\u8d26
p1208
L1206L
sV\u996d\u5e97
p1209
L1207L
sV\u624b\u673a\u8d39
p1210
L1208L
sV\u7ed3\u8d26
p1211
L1209L
sV\u5bbd\u9650\u671f
p1212
L1210L
sV\u7eaa\u5f55
p1213
L1211L
sV\u5341\u4e8c\u70b9
p1214
L1212L
sV\u4e0a\u80fd
p1215
L1213L
sV\u95f2\u9c7c
p1216
L1214L
sV\u7248
p1217
L1215L
sV\u8d60\u9001
p1218
L1216L
sV\u51e0\u65f6
p1219
L1217L
sV\u4e00\u4e24\u5929
p1220
L1218L
sV\u660e\u767d
p1221
L1219L
sV\u54af
p1222
L1220L
sV\u4e0d\u80fd\u53d6\u6d88
p1223
L1221L
sV\u54c8
p1224
L1222L
sV\u7f8e
p1225
L1223L
sV\u964d\u5230
p1226
L1224L
sV\u5c0f\u989d
p1227
L1225L
sV\u5173\u952e
p1228
L1226L
sV\u4ed8\u8d39
p1229
L1227L
sV\u8fd8\u7b97
p1230
L1228L
sV\u5206\u5f00
p1231
L1229L
sV\u4e0d\u5f97
p1232
L1230L
sV\u5341\u5929
p1233
L1231L
sV\u4e0b\u6765
p1234
L1232L
sV\u4e09\u5343
p1235
L1233L
sV\u6e05\u5355
p1236
L1234L
sV\u5b9e\u4f53
p1237
L1235L
sV\u8fd4\u6b3e
p1238
L1236L
sV\u62fc
p1239
L1237L
sV\u67e5\u627e
p1240
L1238L
sV\u8d1d\u58f3
p1241
L1239L
sV\u7528\u5230
p1242
L1240L
sV\u6708\u521d
p1243
L1241L
sV\u51e0\u7b14
p1244
L1242L
sV\u5b9e\u65f6
p1245
L1243L
sV\u5931\u6548
p1246
L1244L
sV\u8db3\u8ff9
p1247
L1245L
sV\u6c34\u8d39
p1248
L1246L
sV\u9999\u6e2f
p1249
L1247L
sV\u4e00\u4e0b\u5b50
p1250
L1248L
sV\u5171\u7528
p1251
L1249L
sV\u6bcf\u65e5
p1252
L1250L
sV\u7acb\u9a6c
p1253
L1251L
sV\u4ee3\u4ed8\u6b3e
p1254
L1252L
sV\u8bbe\u5b9a
p1255
L1253L
sV\u5e0c\u671b
p1256
L1254L
sV\u53ca
p1257
L1255L
sV\u9884\u552e
p1258
L1256L
sV\u98de\u732a
p1259
L1257L
sV\u672c\u671f
p1260
L1258L
sV\u65f6\u7528
p1261
L1259L
sV\u5361\u53f7
p1262
L1260L
sV\u8f6c\u7ed9
p1263
L1261L
sV\u4f18\u9177
p1264
L1262L
sV\u8d77
p1265
L1263L
sV\u8d1f\u9762\u5f71\u54cd
p1266
L1264L
sV\u4e0d\u77e5
p1267
L1265L
sV\u574f
p1268
L1266L
sV\u65b0\u5f00\u901a
p1269
L1267L
sV\u591a\u5206
p1270
L1268L
sV\u94fe\u63a5
p1271
L1269L
sV\u53d1\u7968
p1272
L1270L
sV\u4e00\u9879
p1273
L1271L
sV\u7b97\u662f
p1274
L1272L
sV\u6743\u76ca
p1275
L1273L
sV\u94b1\u624d
p1276
L1274L
sV\u4e22\u5931
p1277
L1275L
sV\u6839\u672c
p1278
L1276L
sV\u5546\u94fa
p1279
L1277L
sV\u5de6\u53f3
p1280
L1278L
sV\u767b\u5165
p1281
L1279L
sV\u4e00\u5bb6
p1282
L1280L
sV\u7ec4\u5408
p1283
L1281L
sV\u8303\u56f4
p1284
L1282L
sV\u4e09\u6b21
p1285
L1283L
sV\u653e
p1286
L1284L
sV\u6570\u989d
p1287
L1285L
sV\u96c6\u5206
p1288
L1286L
sV\u7f51\u9875
p1289
L1287L
sV\u5956\u54c1
p1290
L1288L
sV\u6839\u636e
p1291
L1289L
sV\u5f85
p1292
L1290L
sV\u4e8c\u6b21
p1293
L1291L
sV\u8f66\u9669
p1294
L1292L
sV\u65e9\u5c31
p1295
L1293L
sV\u63d0\u51fa
p1296
L1294L
sV\u7b49\u5f85
p1297
L1295L
sV\u5929\u5929
p1298
L1296L
sV\u7801\u7528
p1299
L1297L
sV\u7ed3\u675f
p1300
L1298L
sV\u53d6
p1301
L1299L
sV\u6b21\u6708
p1302
L1300L
sV\u501f\u51fa
p1303
L1301L
sV\u4e0b\u4e0b\u4e2a\u6708
p1304
L1302L
sV\u9884\u5b9a
p1305
L1303L
sV\u5e26
p1306
L1304L
sV\u8db3\u591f
p1307
L1305L
sV\u5230\u8d27
p1308
L1306L
sV\u6700\u665a
p1309
L1307L
sV\u6ca1\u4e8b
p1310
L1308L
sV\u534a\u4e2a
p1311
L1309L
sV\u4e86\u94b1
p1312
L1310L
sV\u5173\u4e8e
p1313
L1311L
sV\u8fd9\u671f
p1314
L1312L
sV\u7531
p1315
L1313L
sV\u540e\u7eed
p1316
L1314L
sV\u503c
p1317
L1315L
sV\u53d8\u5c11
p1318
L1316L
sV\u8f6c\u6362\u6210
p1319
L1317L
sV\u5341\u6708
p1320
L1318L
sV\u524d\u9762
p1321
L1319L
sV\u7535\u5f71\u7968
p1322
L1320L
sV\u5f52\u8fd8
p1323
L1321L
sV\u786e
p1324
L1322L
sV\u4e09\u767e
p1325
L1323L
sV\u5b8c\u94b1
p1326
L1324L
sV\u501f\u5230
p1327
L1325L
sV\u767b\u4e0d
p1328
L1326L
sV\u5206\u624d
p1329
L1327L
sV\u8bfb\u53d6
p1330
L1328L
sV\u5e76\u4e14
p1331
L1329L
sV\u5b9d\u8d1d
p1332
L1330L
sV\u6781\u901f
p1333
L1331L
sV\u4e24\u5e74
p1334
L1332L
sV\u94b1\u5305
p1335
L1333L
sV\u5f7b\u5e95
p1336
L1334L
sV\u6536\u76ca
p1337
L1335L
sV\u7ba1\u7406
p1338
L1336L
sV\u8d85\u65f6
p1339
L1337L
sV\u96f6
p1340
L1338L
sV\u56e0
p1341
L1339L
sV\u51fa\u53bb
p1342
L1340L
sV\u7b49\u4e8e
p1343
L1341L
sV\u9644\u8fd1
p1344
L1342L
sV\u4e8c
p1345
L1343L
sV\u6dd8\u5b9d\u7f51
p1346
L1344L
sV\u4e0b\u8c03
p1347
L1345L
sV\u539f
p1348
L1346L
sV\u62a2
p1349
L1347L
sV\u65b0\u4eba
p1350
L1348L
sV\u4e94\u5929
p1351
L1349L
sV\u91cd\u5f00
p1352
L1350L
sV\u6d41\u6c34
p1353
L1351L
sV\u4e86\u8fd8
p1354
L1352L
sV\u4e13\u5c5e
p1355
L1353L
sV\u5206\u6570
p1356
L1354L
sV\u8d26\u53f7\u5bc6\u7801
p1357
L1355L
sV\u4e0d\u80fd\u4e0d
p1358
L1356L
sV\u8f6c\u4e3a
p1359
L1357L
sV\u5e2e\u522b\u4eba
p1360
L1358L
sV\u5145\u7535
p1361
L1359L
sV\u56de\u53bb
p1362
L1360L
sV\u5b9a\u91d1
p1363
L1361L
sV\u8eab\u4efd\u9a8c\u8bc1
p1364
L1362L
sV\u7528\u8fc7
p1365
L1363L
sV\u8fc7\u53bb
p1366
L1364L
sV\u8865\u5168
p1367
L1365L
sV\u8df3
p1368
L1366L
sV\u5206\u4eab
p1369
L1367L
sV\u5206\u4e3a
p1370
L1368L
sV\u4e2a\u4eba\u4fe1\u606f
p1371
L1369L
sV\u4e2d\u56fd
p1372
L1370L
sV\u901a\u4e0d\u8fc7
p1373
L1371L
sV\u63d0\u94b1
p1374
L1372L
sV\u5546\u57ce
p1375
L1373L
sV\u65f6\u4f1a
p1376
L1374L
sV\u4ea4\u9519
p1377
L1375L
sV\u603b\u91d1\u989d
p1378
L1376L
sV\u8c03\u989d
p1379
L1377L
sV\u501f\u7528
p1380
L1378L
sV\u63a8\u8350
p1381
L1379L
sV\u4e24\u5343
p1382
L1380L
sV\u82e5
p1383
L1381L
sV\u51c6\u5907
p1384
L1382L
sV\u4e00\u6b65
p1385
L1383L
sV\u5f00\u5f00
p1386
L1384L
sV\u5468\u5361
p1387
L1385L
sV\u4fe1
p1388
L1386L
sV\u505c\u6b62
p1389
L1387L
sV\u622a\u6b62
p1390
L1388L
sV\u539f\u5148
p1391
L1389L
sV\u4e94\u5343
p1392
L1390L
sV\u6253\u5370
p1393
L1391L
sVofo
p1394
L1392L
sV\u82b1\u5b8c
p1395
L1393L
sV\u5165
p1396
L1394L
sV\u5230\u54ea\u53bb
p1397
L1395L
sV\u507f\u8fd8
p1398
L1396L
sV\u82b1\u88ab
p1399
L1397L
sV\u8d85\u9650
p1400
L1398L
sV\u62d6
p1401
L1399L
sV\u8bc1\u4ef6
p1402
L1400L
sV\u6447\u4e00\u6447
p1403
L1401L
sV\u5206\u6709
p1404
L1402L
sV\u4e4b\u5185
p1405
L1403L
sV\u865a\u62df
p1406
L1404L
sV\u7b49\u5230
p1407
L1405L
sV\u66ff
p1408
L1406L
sV\u8ba1\u5212
p1409
L1407L
sV\u5546\u8d27
p1410
L1408L
sV\u4e13\u4eab
p1411
L1409L
sV\u505c\u6389
p1412
L1410L
sV\u9996\u671f
p1413
L1411L
sV\u5173\u6ce8
p1414
L1412L
sV\u5145\u94b1
p1415
L1413L
sV\u4fdd\u9669
p1416
L1414L
sV\u589e\u957f
p1417
L1415L
sV\u5206\u80fd
p1418
L1416L
sV\u9000\u8ba2
p1419
L1417L
sV\u6d88
p1420
L1418L
sV\u4e00\u5206
p1421
L1419L
sV\u5355\u72ec
p1422
L1420L
sV\u5b50
p1423
L1421L
sV\u5b9e\u7528
p1424
L1422L
sV\u56fd\u5916
p1425
L1423L
sV\u94b1\u6b3e
p1426
L1424L
sV\u9020\u6210
p1427
L1425L
sV\u6807\u51c6
p1428
L1426L
sV\u8f6c\u8fc7
p1429
L1427L
sV\u4fdd\u8bc1\u91d1
p1430
L1428L
sV\u5361\u80fd
p1431
L1429L
sV\u5956\u52b1
p1432
L1430L
sV\u5b8c\u5168
p1433
L1431L
sV\u95ee\u4e0b
p1434
L1432L
sV\u65e0\u7f18\u65e0\u6545
p1435
L1433L
sV\u968f
p1436
L1434L
sV\u81ea\u52a9
p1437
L1435L
sV\u6709\u65f6
p1438
L1436L
sV\u505c\u673a
p1439
L1437L
sV\u62e5\u6709
p1440
L1438L
sV\u7535\u5b50
p1441
L1439L
sV\u653e\u5230
p1442
L1440L
sV\u533b\u9662
p1443
L1441L
sV\u64a4\u56de
p1444
L1442L
sV\u6709\u4eba
p1445
L1443L
sV\u7684\u7684
p1446
L1444L
sV\u8d34\u7eb8
p1447
L1445L
sV\u597d\u51e0\u4e2a
p1448
L1446L
sV\u624b\u673a\u5361
p1449
L1447L
sV\u884c\u4e0d\u884c
p1450
L1448L
sV\u6ca1\u9000
p1451
L1449L
sV\u611f\u89c9
p1452
L1450L
sV\u8d27\u7269
p1453
L1451L
sV\u4e86\u5230
p1454
L1452L
sV\u975e
p1455
L1453L
sV\u4e24
p1456
L1454L
sV\u8fc7\u5e74
p1457
L1455L
sV\u4e0b\u9762
p1458
L1456L
sV\u8054\u7cfb\u4eba
p1459
L1457L
sV\u5c31\u662f\u8bf4
p1460
L1458L
sV\u666e\u901a
p1461
L1459L
sV\u7591\u95ee
p1462
L1460L
sV\u521d\u4e2d
p1463
L1461L
sV\u5408\u9002
p1464
L1462L
sV\u6253\u5230
p1465
L1463L
sV\u4e00\u6708\u4efd
p1466
L1464L
sV\u624b\u7eed
p1467
L1465L
sV\u968f\u501f
p1468
L1466L
sV\u8bb0\u8d26
p1469
L1467L
sV\u7528\u561b
p1470
L1468L
sV\u6709\u70b9
p1471
L1469L
sV\u6539\u7b7e
p1472
L1470L
sV\u9000\u6389
p1473
L1471L
sV\u7f51\u7ad9
p1474
L1472L
sV\u8be6\u60c5
p1475
L1473L
sV\u9000\u56de\u53bb
p1476
L1474L
sV\u5ba1\u6279
p1477
L1475L
sV\u51cf\u514d
p1478
L1476L
sV\u51fa\u94b1
p1479
L1477L
sV\u8c03\u56de\u6765
p1480
L1478L
sV\u80fd\u4ed8
p1481
L1479L
sV\u63a5\u6536
p1482
L1480L
sV\u65b0\u624b\u673a
p1483
L1481L
sV\u7b49\u7ea7
p1484
L1482L
sV\u7981\u6b62
p1485
L1483L
sV\u6362\u5230
p1486
L1484L
sV\u5386\u53f2
p1487
L1485L
sV\u7ebf
p1488
L1486L
sV\u5176\u4ed6\u4eba
p1489
L1487L
sV\u4f18\u60e0\u5377
p1490
L1488L
sV\u6628\u5929\u665a\u4e0a
p1491
L1489L
sV\u8eab\u4efd\u8bc1\u53f7
p1492
L1490L
sV\u5bbd\u9650
p1493
L1491L
sV\u751f\u6548
p1494
L1492L
sV\u5356
p1495
L1493L
sV\u53d8\u4f4e
p1496
L1494L
sV\u83b7\u53d6
p1497
L1495L
sV\u7eed\u8d39
p1498
L1496L
sV\u6211\u5df1
p1499
L1497L
sV\u80fd\u5f00
p1500
L1498L
sV\u7b2c\u4e00
p1501
L1499L
sV\u524d\u5929
p1502
L1500L
sV\u9996\u4ed8
p1503
L1501L
sV\u65e9
p1504
L1502L
sV\u6700\u597d
p1505
L1503L
sV\u539f\u6709
p1506
L1504L
sV\u4e00\u5757
p1507
L1505L
sV\u8fd8\u7684\u662f
p1508
L1506L
sV\u6b63\u5728
p1509
L1507L
sV\u77ed
p1510
L1508L
sV\u53e0\u52a0
p1511
L1509L
sV\u4e5f\u5c31\u662f\u8bf4
p1512
L1510L
sV\u51e0\u5e74
p1513
L1511L
sV\u573a\u666f
p1514
L1512L
sV\u57fa\u91d1
p1515
L1513L
sV\u6211\u4f1a
p1516
L1514L
sV\u6ca1\u6da8
p1517
L1515L
sV\u6700\u5feb
p1518
L1516L
sV\u6361
p1519
L1517L
sV\u552e\u540e
p1520
L1518L
sV\u4fe9\u4e2a
p1521
L1519L
sV\u5343
p1522
L1520L
sV\u633a
p1523
L1521L
sV\u8bf4\u4e0d
p1524
L1522L
sV\u540e\u4e0b
p1525
L1523L
sV\u4ee5\u4e3a
p1526
L1524L
sV\u5356\u4e1c\u897f
p1527
L1525L
sV\u6539\u8fc7\u6765
p1528
L1526L
sV\u6ee1\u8db3\u6761\u4ef6
p1529
L1527L
sV\u5e97\u9762
p1530
L1528L
sV\u4e00\u4efd
p1531
L1529L
sV\u6709\u7684\u662f
p1532
L1530L
sV\u4e8e
p1533
L1531L
sV\u901a
p1534
L1532L
sV\u7f51\u7edc
p1535
L1533L
sV\u6bd4\u5982\u8bf4
p1536
L1534L
sV\u63a5\u53d7
p1537
L1535L
sV\u7acb\u523b
p1538
L1536L
sV\u7ec8\u6b62
p1539
L1537L
sV\u8ba1\u5165
p1540
L1538L
sV\u4e0a\u5347
p1541
L1539L
sV\u540c\u6837
p1542
L1540L
sV\u7ed3
p1543
L1541L
sV\u8ba1\u606f
p1544
L1542L
sV\u5916\u9762
p1545
L1543L
sV\u591a\u957f
p1546
L1544L
sV\u89c9\u5f97
p1547
L1545L
sV\u53d7\u9650\u5236
p1548
L1546L
sV\u4eca\u5e74
p1549
L1547L
sV\u5341\u4e8c\u6708
p1550
L1548L
sV\u4e94
p1551
L1549L
sV\u5b58\u94b1
p1552
L1550L
sV\u5305\u542b
p1553
L1551L
sV\u800c\u662f
p1554
L1552L
sV\u53d8\u4e3a
p1555
L1553L
sV\u7ed9\u6211\u53d1
p1556
L1554L
sV\u6539\u6b3e
p1557
L1555L
sV\u6837\u5b50
p1558
L1556L
sV\u73b0\u6709
p1559
L1557L
sV\u5b57
p1560
L1558L
sV\u901a\u7528
p1561
L1559L
sV\u6ee1\u51cf
p1562
L1560L
sV\u53d1\u653e
p1563
L1561L
sV\u4e3a\u4e86
p1564
L1562L
sV\u55ce
p1565
L1563L
sV\u7b97\u4e86
p1566
L1564L
sV\u6625\u8282
p1567
L1565L
sV\u5e94\u8fd8
p1568
L1566L
sV\u4e00\u5468
p1569
L1567L
sV\uff5e
p1570
L1568L
sV\u5fae
p1571
L1569L
sV\u5feb\u70b9
p1572
L1570L
sV\u4e0a\u6765
p1573
L1571L
sV\u51bb
p1574
L1572L
sV\u5c31\u7b97
p1575
L1573L
sV\u8bf4\u660e
p1576
L1574L
sV\u4ecd
p1577
L1575L
sV\u6c92\u6709
p1578
L1576L
sV\u5229\u76ca
p1579
L1577L
sV\u5347\u7ea7\u6210
p1580
L1578L
sV\u4e00\u79cd
p1581
L1579L
sV\u4e00\u5355
p1582
L1580L
sV\u652f\u4e0d
p1583
L1581L
sV\u4ee3\u8fd8
p1584
L1582L
sV\u524d\u4e24\u5929
p1585
L1583L
sV\u5efa\u8bae
p1586
L1584L
sV\u5416
p1587
L1585L
sV\u6700\u5e95
p1588
L1586L
sV\u540e\u5728
p1589
L1587L
sV\u4e3b\u9875
p1590
L1588L
sV\u53cd\u800c
p1591
L1589L
sV\u52a0\u5165
p1592
L1590L
sV\u4e94\u5341
p1593
L1591L
sV\u6539\u56de\u6765
p1594
L1592L
sV\u4e0a\u627e
p1595
L1593L
sV\u4ee5\u5185
p1596
L1594L
sV\u7edf\u4e00
p1597
L1595L
sV\u4e71
p1598
L1596L
sV\u8f6c\u9519
p1599
L1597L
sV\u8865
p1600
L1598L
sV\u53d1\u9001
p1601
L1599L
sV\u4e00\u6761
p1602
L1600L
sV\u8fd9\u6708
p1603
L1601L
sV\u6307\u5b9a
p1604
L1602L
sV\u8f6c\u94b1
p1605
L1603L
sV\u5546\u54c1\u4ef7\u683c
p1606
L1604L
sV\u94b1\u6570
p1607
L1605L
sV\u4e00\u767e\u5143
p1608
L1606L
sV\u8d85\u671f
p1609
L1607L
sV\u989d\u5916
p1610
L1608L
sV\u5b9a\u671f
p1611
L1609L
sV\u7f51\u8d2d
p1612
L1610L
sV\u4e86\u9000
p1613
L1611L
sV\u9b3c
p1614
L1612L
sV\u6709\u4f55
p1615
L1613L
sV\u8fdf\u8fdf
p1616
L1614L
sV\u4fdd\u969c
p1617
L1615L
sV\u624b\u672f\u8d39
p1618
L1616L
sV\u63d0\u82b1
p1619
L1617L
sV\u542f\u7528
p1620
L1618L
sV\u63a8\u540e
p1621
L1619L
sV\u98ce
p1622
L1620L
sV\u62c9
p1623
L1621L
sV\u53e3
p1624
L1622L
sV\u63a8\u5e7f
p1625
L1623L
sV\u6ca1\u51cf
p1626
L1624L
sV\u4e0a\u7ebf
p1627
L1625L
sV\u591a\u7528
p1628
L1626L
sV\u4e0a\u5348
p1629
L1627L
sV\u80fd\u82b1
p1630
L1628L
sV\u7528\u5b8c
p1631
L1629L
sV\u8fd9\u79cd
p1632
L1630L
sV\u5374\u662f
p1633
L1631L
sV\u62b5\u7528
p1634
L1632L
sV\u968f\u4fbf
p1635
L1633L
sV\u79fb\u52a8
p1636
L1634L
sV\u4e00\u767e\u591a
p1637
L1635L
sV\u8fd8\u597d
p1638
L1636L
sV\u5177\u5907
p1639
L1637L
sV\u4f5c\u7528
p1640
L1638L
sV\u6ca1\u7ed9
p1641
L1639L
sV\u4e00\u4f1a
p1642
L1640L
sV\u6015
p1643
L1641L
sV\u65b9\u4fbf
p1644
L1642L
sV\u672c\u606f
p1645
L1643L
sV\u8981\u7528
p1646
L1644L
sV\u53d7\u5230
p1647
L1645L
sV\u9501
p1648
L1646L
sV\u5b8c\u80fd
p1649
L1647L
sV\u51ed
p1650
L1648L
sV\u4e0d\u518d
p1651
L1649L
sV\u6ca1\u5c11
p1652
L1650L
sV\u80fd\u5145
p1653
L1651L
sV\u91d1
p1654
L1652L
sV\u652f
p1655
L1653L
sV\u522b
p1656
L1654L
sV\u4e24\u767e
p1657
L1655L
sV\u5f80\u540e
p1658
L1656L
sV\u4e24\u4e07
p1659
L1657L
sV\u53d1\u7ed9
p1660
L1658L
sV\u53bb\u5411
p1661
L1659L
sV\u7b2c\u4e00\u7b14
p1662
L1660L
sV\u63a7
p1663
L1661L
sV\u5f00\u5173
p1664
L1662L
sV\u4ecd\u7136
p1665
L1663L
sV\u8fd8\u539f
p1666
L1664L
sV\u4f9d\u7136
p1667
L1665L
sV\u53eb\u5916\u5356
p1668
L1666L
sV\u501f\u8fc7
p1669
L1667L
sV\u5f85\u5904\u7406
p1670
L1668L
sV\u8bc4\u5206
p1671
L1669L
sV\u901a\u9053
p1672
L1670L
sV\u6709\u9650
p1673
L1671L
sV\u5e95
p1674
L1672L
sV\u62b5
p1675
L1673L
sV\u6dd8
p1676
L1674L
sV\u5fd9
p1677
L1675L
sV\u6682\u672a
p1678
L1676L
sV\u7533\u8bf7\u4eba
p1679
L1677L
sV\u6492
p1680
L1678L
sV\u665a\u70b9
p1681
L1679L
sV\u4e00\u6b3e
p1682
L1680L
sV\u6d41\u7a0b
p1683
L1681L
sV\u6708\u7528
p1684
L1682L
sV\u6240
p1685
L1683L
sV\u94b1\u80fd
p1686
L1684L
sV\u6025
p1687
L1685L
sV\u8981\u6362
p1688
L1686L
sV\u5378\u8f7d
p1689
L1687L
sV\u84dd\u8f66
p1690
L1688L
sV\u4e70\u7968
p1691
L1689L
sV\u82cf\u5b81
p1692
L1690L
sV\u5341\u4e94\u53f7
p1693
L1691L
sV\u65f6\u80fd
p1694
L1692L
sV\u5237\u65b0
p1695
L1693L
sV\u732b
p1696
L1694L
sV\u4e00\u5343\u591a
p1697
L1695L
sV\u8f6c\u4e0d\u8fdb
p1698
L1696L
sV\u7531\u4e8e
p1699
L1697L
sV\u770b\u4e0d\u89c1
p1700
L1698L
sVqb
p1701
L1699L
sV\u94a5\u5319
p1702
L1700L
sV\u622a\u56fe
p1703
L1701L
sV\u54ea\u4e00\u5929
p1704
L1702L
sV\u63a5\u7740
p1705
L1703L
sV\u58f3
p1706
L1704L
sV\u5e26\u6709
p1707
L1705L
sV\u4e3b\u8981
p1708
L1706L
sV\u552f\u54c1
p1709
L1707L
sV\u5dee\u4e0d\u591a
p1710
L1708L
sV\u90a3\u79cd
p1711
L1709L
sV\u606f
p1712
L1710L
sV\u4e09\u767e\u591a
p1713
L1711L
sV\u53bb\u5e74
p1714
L1712L
sV\u7f5a\u606f
p1715
L1713L
sV\u624b
p1716
L1714L
sV\u6346\u7ed1
p1717
L1715L
sV\u89c1
p1718
L1716L
sV\u9879\u76ee
p1719
L1717L
sV\u5b98\u65b9
p1720
L1718L
sV\u592a\u6162
p1721
L1719L
sV\u6362\u7ed1
p1722
L1720L
sV\u786e\u5b9e
p1723
L1721L
sV\u505c\u6b62\u4f7f\u7528
p1724
L1722L
sV\u4e3b
p1725
L1723L
sV\u4e5d\u4e2a
p1726
L1724L
sV\u5750
p1727
L1725L
sV\u7528\u5904
p1728
L1726L
sV\u5f3a\u5236
p1729
L1727L
sV\u5212\u7b97
p1730
L1728L
sV\u5fd8\u8fd8
p1731
L1729L
sV\u5c0f\u871c
p1732
L1730L
sV\u6ca1\u5f00
p1733
L1731L
sV\u4fdd\u62a4
p1734
L1732L
sV\u590d\u5229
p1735
L1733L
sV\u8f66\u724c\u53f7
p1736
L1734L
sV\u6838\u5bf9
p1737
L1735L
sV\u548b\u4e48
p1738
L1736L
sV\u5c0f\u8d37
p1739
L1737L
sV\u8981\u94b1
p1740
L1738L
sV\u9884\u7ea6
p1741
L1739L
sV\u66f0
p1742
L1740L
sV\u6362\u56de
p1743
L1741L
sV\u5600\u5600
p1744
L1742L
sV\u591a\u5143
p1745
L1743L
sV\u5efa\u8bae\u60a8
p1746
L1744L
sV\u521d\u59cb\u5316
p1747
L1745L
sV\u6bd4\u8f83
p1748
L1746L
sV\u6025\u7528
p1749
L1747L
sV\u91d1\u878d
p1750
L1748L
sV\u6ce8\u610f
p1751
L1749L
sV\u7070\u8272
p1752
L1750L
sV\u5374\u8bf4
p1753
L1751L
sV\u8d1f\u4f1a
p1754
L1752L
sV\u6253\u7b97
p1755
L1753L
sV\u5b9e\u540d\u5236
p1756
L1754L
sV\u7f5a\u6b3e
p1757
L1755L
sV\u5f00\u653e
p1758
L1756L
sV\u8d27\u5230\u4ed8\u6b3e
p1759
L1757L
sV\u51fa\u9519
p1760
L1758L
sV\u903e
p1761
L1759L
sV\u5360
p1762
L1760L
sV\u800c\u5df2
p1763
L1761L
sV\u6b63\u786e
p1764
L1762L
sV\u55bd
p1765
L1763L
sV\u738b\u8005
p1766
L1764L
sV\u8363\u8000
p1767
L1765L
sV\u51c6\u65f6
p1768
L1766L
sV\u53d1\u5de5\u8d44
p1769
L1767L
sV\u542c\u8bf4
p1770
L1768L
sV\u51cc\u6668
p1771
L1769L
sV\u6574
p1772
L1770L
sV\u4e0a\u6da8
p1773
L1771L
sV\u4e00\u90e8
p1774
L1772L
sV\u4e00\u5143
p1775
L1773L
sV\u8d5a
p1776
L1774L
sV\u7535
p1777
L1775L
sV\u4e07\u5206
p1778
L1776L
sV\u56fe\u7247
p1779
L1777L
sV\u91cd\u5e86
p1780
L1778L
sV\u4eba\u6570
p1781
L1779L
sV\u5341\u5143
p1782
L1780L
sV\u90fd\u8fd8\u6ca1
p1783
L1781L
sV\u5f53\u671f
p1784
L1782L
sV\u65b9
p1785
L1783L
sV\u8fd8\u4e86
p1786
L1784L
sV\u963f\u91cc\u5df4\u5df4
p1787
L1785L
sV\u548c\u7f51
p1788
L1786L
sV\u65b0\u53f7
p1789
L1787L
sV\u50ac
p1790
L1788L
sV\u5bb6
p1791
L1789L
sV\u6bdb
p1792
L1790L
sV\u8001\u516c
p1793
L1791L
sV\u5546\u4ee3
p1794
L1792L
sV\u56de\u4e8b\u513f
p1795
L1793L
sV\u62b5\u6d88
p1796
L1794L
sV\u7981\u7528
p1797
L1795L
sV\u8282\u5047\u65e5
p1798
L1796L
sV\u56db
p1799
L1797L
sV\u5c1d\u8bd5
p1800
L1798L
sV\u9650\u65f6
p1801
L1799L
sV\u6309\u4e86
p1802
L1800L
sV\u5929\u6709
p1803
L1801L
sV\u7ba1
p1804
L1802L
sV\u6c42
p1805
L1803L
sV\u5403
p1806
L1804L
sV\u5206\u522b
p1807
L1805L
sV\u63d0\u8d77
p1808
L1806L
sV\u7f29\u77ed
p1809
L1807L
sV\u7b2c\u4e8c\u671f
p1810
L1808L
sV\u6ca1\u53d1
p1811
L1809L
sV\u9000\u6362
p1812
L1810L
sV\u9ec4\u91d1\u4f1a\u5458
p1813
L1811L
sV\u4e0a\u6263
p1814
L1812L
sV\u559c\u6b22
p1815
L1813L
sV\u611f
p1816
L1814L
sV\u9996\u5148
p1817
L1815L
sV\u4e24\u5f20
p1818
L1816L
sVpc
p1819
L1817L
sV\u8138\u90e8
p1820
L1818L
sV\u80fd\u67e5
p1821
L1819L
sV\u6709\u4e8b\u5417
p1822
L1820L
sV\u65e5\u606f
p1823
L1821L
sV\u4ef7\u94b1
p1824
L1822L
sV\u4e86\u6362
p1825
L1823L
sV\u8bf4\u7528
p1826
L1824L
sV\u7a0b\u5e8f
p1827
L1825L
sV\u5206\u949f
p1828
L1826L
sV\u6307\u7eb9
p1829
L1827L
sV\u51e0
p1830
L1828L
sV\u68ee\u6797
p1831
L1829L
sV\u65e5\u5b50
p1832
L1830L
sV\u7528\u8fd8
p1833
L1831L
sV\u5206\u8981
p1834
L1832L
sV\u963f\u91cc
p1835
L1833L
sV\u9047\u5230
p1836
L1834L
sV\u9500\u6237
p1837
L1835L
sV\u4e00\u514d
p1838
L1836L
sV\u5236\u4f5c
p1839
L1837L
sV\u4e8c\u5929
p1840
L1838L
sV\u524d\u6bb5\u65f6\u95f4
p1841
L1839L
sV\u540c\u4e8b
p1842
L1840L
sV\u5408\u4f5c
p1843
L1841L
sV\u4e0d\u51fa
p1844
L1842L
sV\u65e9\u70b9
p1845
L1843L
sV\u501f\u8bb0\u5361
p1846
L1844L
sV\u6536\u4e0d\u6536
p1847
L1845L
sV\u54ea\u4e9b\u5730\u65b9
p1848
L1846L
sV\u7f51\u5427
p1849
L1847L
sV\u4e4b
p1850
L1848L
sV\u6263\u4e48
p1851
L1849L
sV\u8bf7\u6c42
p1852
L1850L
sV\u4e0d\u5bf9
p1853
L1851L
sV\u4e0d\u5728
p1854
L1852L
sV\u5173\u4e0d\u4e86
p1855
L1853L
sV\u591a\u51fa
p1856
L1854L
sV\u4e0b\u4f1a
p1857
L1855L
sV\u4ee5\u4e0b
p1858
L1856L
sV\u627f\u62c5
p1859
L1857L
sV\u5ba1\u8bf7
p1860
L1858L
sV\u4ec0\u6211
p1861
L1859L
sV\u6e20\u9053
p1862
L1860L
sV\u91cd
p1863
L1861L
sV\u65b0\u624b
p1864
L1862L
sV\u519c\u884c
p1865
L1863L
sV\u5341\u6708\u4efd
p1866
L1864L
sV\u6309\u94ae
p1867
L1865L
sV\u56fe
p1868
L1866L
sV\u6e2f\u6fb3
p1869
L1867L
sV\u4ec0\u9ebc
p1870
L1868L
sV\u521d\u59cb
p1871
L1869L
sV\u5916
p1872
L1870L
sV\u65b9\u9762
p1873
L1871L
sV\u652f\u4ed8\u6b3e
p1874
L1872L
sV\u5b8c\u6bd5
p1875
L1873L
sV\u987a\u98ce
p1876
L1874L
sV\u8d1f\u989d
p1877
L1875L
sV\u7d2f\u8ba1
p1878
L1876L
sV\u81ea\u7136
p1879
L1877L
sV\u5e2e\u8fd8
p1880
L1878L
sV\u4f55\u65f6\u80fd
p1881
L1879L
sV\u5f00\u80fd
p1882
L1880L
sV\u4e0d\u5f00
p1883
L1881L
sV\u6ef4
p1884
L1882L
sV\u6ca1\u6362
p1885
L1883L
sV\u6742
p1886
L1884L
sV\u4e09
p1887
L1885L
sV\u5927\u7ea6
p1888
L1886L
sV\u5bbe\u9986
p1889
L1887L
sV\u964d\u4e0b\u6765
p1890
L1888L
sV\u8fd8\u884c
p1891
L1889L
sV\u4e4b\u7c7b
p1892
L1890L
sV\u534f\u8bae
p1893
L1891L
sV\u7167
p1894
L1892L
sV\u63a8
p1895
L1893L
sV\u7248\u672c
p1896
L1894L
sV\u5f88\u4e45
p1897
L1895L
sV\u5077
p1898
L1896L
sV\u539f\u672c
p1899
L1897L
sV\u8fd8\u540e
p1900
L1898L
sV\u9002\u5408
p1901
L1899L
sV\u8d85\u652f
p1902
L1900L
sV\u52a0\u4e0a
p1903
L1901L
sV\u60f3\u5f00
p1904
L1902L
sV\u4e5d\u6708\u4efd
p1905
L1903L
sV\u9a91
p1906
L1904L
sV\u7f51\u5e97
p1907
L1905L
sV\u7ef4\u62a4
p1908
L1906L
sV\u4e0b\u671f
p1909
L1907L
sV\u4e8c\u6708
p1910
L1908L
sV\u51e0\u5206\u949f
p1911
L1909L
sV\u641e\u9519
p1912
L1910L
sV\u98df\u54c1
p1913
L1911L
sV\u9014\u5f84
p1914
L1912L
sV\u534f\u5546
p1915
L1913L
sV\u8f66\u8f86
p1916
L1914L
sV\u53d6\u73b0
p1917
L1915L
sV\u501f\u4e48
p1918
L1916L
sV\u591a\u4f59
p1919
L1917L
sV\u4e07\u5143
p1920
L1918L
sV\u4e14
p1921
L1919L
sV\u8981\u4ed8
p1922
L1920L
sV\u513f
p1923
L1921L
sV\u4f5c\u4e3a
p1924
L1922L
sV\u70b9\u5f00
p1925
L1923L
sV\u65e5\u7528
p1926
L1924L
sV\u7ed3\u51bb
p1927
L1925L
sV\u5ef6\u957f\u65f6\u95f4
p1928
L1926L
sV\u5988
p1929
L1927L
sV\u819c\u62dc
p1930
L1928L
sV\u89e3\u7ea6
p1931
L1929L
sV\u80fd\u8c03
p1932
L1930L
sV\u51b2\u503c
p1933
L1931L
sVw
p1934
L1932L
sV\u5f04\u9519
p1935
L1933L
sV\u5b58\u5230
p1936
L1934L
sV\u4e25\u91cd
p1937
L1935L
sV\u6b3e\u6b3e
p1938
L1936L
sV\u53d8\u52a8
p1939
L1937L
sV\u8d1d
p1940
L1938L
sV\u4fdd\u7559
p1941
L1939L
sV\u7684\u5238
p1942
L1940L
sV\u4e24\u4e09\u5929
p1943
L1941L
sV\u81ea\u884c
p1944
L1942L
sV\u5305
p1945
L1943L
sV\u6bcf\u7b14
p1946
L1944L
sV\u6bd5\u4e1a
p1947
L1945L
sV\u5df2\u6263
p1948
L1946L
sV\u51e0\u65e5
p1949
L1947L
sV\u540c\u4e00\u5929
p1950
L1948L
sV\u5199\u9519
p1951
L1949L
sV\u9000\u8fd8\u7ed9
p1952
L1950L
sV\u9002\u7528
p1953
L1951L
sV\u4ed8\u5b8c
p1954
L1952L
sV\u90a3\u7b14
p1955
L1953L
sV\u56de\u7b54
p1956
L1954L
sV\u5e73\u65f6
p1957
L1955L
sV\u9884\u652f
p1958
L1956L
sV\u9891\u7e41
p1959
L1957L
sV\u8fd9\u4ef6
p1960
L1958L
sV\u8fdb\u8d26
p1961
L1959L
sV\u4e09\u4e07
p1962
L1960L
sV\u53cc\u500d
p1963
L1961L
sV\u5df2\u7528
p1964
L1962L
sV\u5f88\u5c11
p1965
L1963L
sV\u4f59\u6b3e
p1966
L1964L
sV\u5229
p1967
L1965L
sV\u7ed9\u94b1
p1968
L1966L
sV\u6263\u8fc7
p1969
L1967L
sV\u4e00\u4e07\u591a
p1970
L1968L
sV\u5ef6\u65f6
p1971
L1969L
sV\u4ed8\u7ed9
p1972
L1970L
sV\u6263\u53d6
p1973
L1971L
sV\u9694
p1974
L1972L
sV\u5171\u5b58
p1975
L1973L
sV\u519c\u4e1a\u94f6\u884c
p1976
L1974L
sV\u8fd8\u606f
p1977
L1975L
sV\u63a5\u5230
p1978
L1976L
sV\u5450
p1979
L1977L
sV\u5f20\u5361
p1980
L1978L
sV\u77f3\u6cb9
p1981
L1979L
sV\u6210\u8d1f
p1982
L1980L
sV\u4e0d\u957f
p1983
L1981L
sV\u6709\u672a
p1984
L1982L
sV\u6162\u6162
p1985
L1983L
sV\u71c3\u6c14
p1986
L1984L
sV\u5f00\u4e0d
p1987
L1985L
sV\u540e\u9000
p1988
L1986L
sV\u8ba2\u5355\u53f7
p1989
L1987L
sV\u6211\u5bb6
p1990
L1988L
sV\u516d\u767e
p1991
L1989L
sV\u8d8a\u6765\u8d8a
p1992
L1990L
sV\u518d\u4e5f
p1993
L1991L
sV\u51e0\u5343
p1994
L1992L
sV\u5c31\u884c\u4e86
p1995
L1993L
sV\u70b9\u5238
p1996
L1994L
sV\u767e\u5206\u4e4b
p1997
L1995L
sV\u51cf\u53bb
p1998
L1996L
sV\u7ecf\u8fc7
p1999
L1997L
sV\u5f00\u5934
p2000
L1998L
sV\u4e00\u4e2a\u591a\u6708
p2001
L1999L
sV\u95f4
p2002
L2000L
sV\u4e0d\u5b9a\u671f
p2003
L2001L
sV\u53d7\u6743
p2004
L2002L
sV\u79d2
p2005
L2003L
sV\u4e00\u5343\u5757
p2006
L2004L
sV\u7b2c
p2007
L2005L
sV\u671f\u8fd8
p2008
L2006L
sV\u5ffd\u7565
p2009
L2007L
sV\u4e5d\u6708
p2010
L2008L
sV\u84dd
p2011
L2009L
sV\u5df2\u6709
p2012
L2010L
sVpos
p2013
L2011L
sV\u5f3a\u884c
p2014
L2012L
sV\u5f00\u4e0d\u5f00
p2015
L2013L
sV\u4e0a\u8c03
p2016
L2014L
sV\u5341\u4e00\u6708
p2017
L2015L
sV\u673a
p2018
L2016L
sV\u4ed8\u4e0d
p2019
L2017L
sV\u4e0d\u600e\u4e48
p2020
L2018L
sV\u7b7e\u6536
p2021
L2019L
sV\u7535\u89c6
p2022
L2020L
sV\u5217\u8868
p2023
L2021L
sV\u4eca\u65e5
p2024
L2022L
sV\u8ddf\u6362
p2025
L2023L
sV\u8c03\u9ad8
p2026
L2024L
sV\u53bb\u6389
p2027
L2025L
sV\u6c83\u5c14\u739b
p2028
L2026L
sV\u5929\u6570
p2029
L2027L
sV\u8f6c\u63a5
p2030
L2028L
sV\u4e0a\u501f
p2031
L2029L
sV\u9650\u5ea6
p2032
L2030L
sV\u53cd\u6b63
p2033
L2031L
sV\u501f\u6765
p2034
L2032L
sV\u4e0b\u6b3e
p2035
L2033L
sV\u4e0a\u6b3e
p2036
L2034L
sV\u67d0
p2037
L2035L
sV\u5f88\u4e45\u6ca1
p2038
L2036L
sV\u9000\u53bb
p2039
L2037L
sV\u5151
p2040
L2038L
sV\u7b26\u5408\u8981\u6c42
p2041
L2039L
sV\u4e00\u4e07\u5757
p2042
L2040L
sV\u5171
p2043
L2041L
sV\u4e00\u6bd4
p2044
L2042L
sV\u8d8a\u671f
p2045
L2043L
sV\u62ff\u5230
p2046
L2044L
sV\u4ee5\u53ca
p2047
L2045L
sV\u7231\u5947\u827a
p2048
L2046L
sV\u542b
p2049
L2047L
sV\u6108\u671f
p2050
L2048L
sV\u5594
p2051
L2049L
sV\u6539\u5230
p2052
L2050L
sV\u5373\u65f6
p2053
L2051L
sV\u5f69\u7968
p2054
L2052L
sV\u6539\u4e48
p2055
L2053L
sV\u5c31\u8ba9
p2056
L2054L
sV\u8fd8\u4e0b
p2057
L2055L
sV\u5237\u8138
p2058
L2056L
sV\u8fd1\u671f
p2059
L2057L
sV\u6696\u6c14\u8d39
p2060
L2058L
sV\u4eca\u665a
p2061
L2059L
sV\u5988\u5988
p2062
L2060L
sV\u7164
p2063
L2061L
sV\u5f00\u4e48
p2064
L2062L
sV\u4e4b\u95f4
p2065
L2063L
sV\u4e0d\u826f\u5f71\u54cd
p2066
L2064L
sV\u5e72
p2067
L2065L
sV\u5176\u5b9e
p2068
L2066L
sV\u673a\u6784
p2069
L2067L
sV\u8f66\u8d39
p2070
L2068L
sV\u4e70\u8f66
p2071
L2069L
sV\u798f\u5229
p2072
L2070L
sV\u7f3a
p2073
L2071L
sV\u83ab\u540d\u5176\u5999
p2074
L2072L
sV\u4f38\u8bf7
p2075
L2073L
sV\u8ba2\u8d2d
p2076
L2074L
sV\u5b58\u5165
p2077
L2075L
sV\u4e00\u767e\u5757
p2078
L2076L
sV\u5927\u5b66
p2079
L2077L
sV\u671f\u540e
p2080
L2078L
sV\u6ca1\u4e70
p2081
L2079L
sV\u6b63
p2082
L2080L
sV\u51b2\u9519
p2083
L2081L
sV\u4e00\u6bb5\u65f6\u95f4
p2084
L2082L
sV\u7ed9\u7528
p2085
L2083L
sV\u5feb\u6377
p2086
L2084L
sV\u56db\u5929
p2087
L2085L
sV\u4ea4\u7535
p2088
L2086L
sV\u76f8\u5173
p2089
L2087L
sV\u8fdd\u89c4
p2090
L2088L
sV\u6ca1\u51fa
p2091
L2089L
sV\u5e2e\u5b9a
p2092
L2090L
sV\u8d1f\u6709
p2093
L2091L
sV\u8ba4\u4e0d\u51fa
p2094
L2092L
sV\u6838\u5b9e
p2095
L2093L
sV\u5355\u5b50
p2096
L2094L
sV\u5185\u5bb9
p2097
L2095L
sV\u5de5\u8d44
p2098
L2096L
sV\u51fa\u79df\u8f66
p2099
L2097L
sV\u5c0f\u53f7
p2100
L2098L
sV\u548b\u4e2a
p2101
L2099L
sV\u591a\u671f
p2102
L2100L
sV\u5bf9\u5e94
p2103
L2101L
sV\u4f59\u671f
p2104
L2102L
sV\u9a6c
p2105
L2103L
sV\u81ea
p2106
L2104L
sV\u6362\u6389
p2107
L2105L
sV\u5206\u4e48
p2108
L2106L
sV\u4e0d\u8fd8
p2109
L2107L
sV\u984d\u5ea6
p2110
L2108L
sV\u4e0d\u5347
p2111
L2109L
sV\u51cf\u94b1
p2112
L2110L
sV\u518d\u6709
p2113
L2111L
sV\u591a\u4ed8
p2114
L2112L
sV\u5ffd\u7136
p2115
L2113L
sV\u90a3\u6837
p2116
L2114L
sV\u96be\u9053
p2117
L2115L
sV\u50ac\u6b3e
p2118
L2116L
sV\u5efa\u884c
p2119
L2117L
sV\u6709\u6548
p2120
L2118L
sV\u62d2\u7edd
p2121
L2119L
sV\u5219
p2122
L2120L
sV\u8bb0
p2123
L2121L
sV\u51fa\u4e0d\u6765
p2124
L2122L
sV\u7387
p2125
L2123L
sV\u6362\u5361
p2126
L2124L
sV\u968f\u8fd8
p2127
L2125L
sV\u66f4\u597d
p2128
L2126L
sV\u5b8c\u4f1a
p2129
L2127L
sV\u5f00\u8d77
p2130
L2128L
sV\u670d
p2131
L2129L
sV\u7b2c\u4e8c\u7b14
p2132
L2130L
sV\u561e
p2133
L2131L
sV\u7a7a\u53f7
p2134
L2132L
sVm
p2135
L2133L
sV\u542c
p2136
L2134L
sV\u81ea\u4e3b
p2137
L2135L
sV\u9ed1\u540d\u5355
p2138
L2136L
sV\u4ece\u65b0
p2139
L2137L
sV\u6263\u5b8c
p2140
L2138L
sV\u5f00\u53d1\u7968
p2141
L2139L
sV\u63d0\u65e9
p2142
L2140L
sV\u57fa\u672c
p2143
L2141L
sV\u8eab\u8fb9
p2144
L2142L
sV\u4e00\u680f
p2145
L2143L
sV\u5b89\u5b89
p2146
L2144L
sV\u5956
p2147
L2145L
sV\u4e94\u767e\u591a
p2148
L2146L
sV\u5f00\u5e97
p2149
L2147L
sV\u4ecb\u7ecd
p2150
L2148L
sV\u56fa\u8bdd
p2151
L2149L
sV\u8d26\u671f
p2152
L2150L
sV\u4e34\u989d
p2153
L2151L
sV\u91cd\u7f6e
p2154
L2152L
sV\u4ed8\u8fc7
p2155
L2153L
sVl
p2156
L2154L
sV\u8fd8\u8d37
p2157
L2155L
sV\u4e03\u5929
p2158
L2156L
sV\u770b\u4e0d\u61c2
p2159
L2157L
sV\u5bb6\u88c5
p2160
L2158L
sV\u62d6\u6b20
p2161
L2159L
sV\u65e2\u7136
p2162
L2160L
sV\u4e3a\u4ec0
p2163
L2161L
sV\u6ca1\u89c1
p2164
L2162L
sV\u51cf\u6389
p2165
L2163L
sV\u4e58\u8f66
p2166
L2164L
sV\u51e0\u6708
p2167
L2165L
sV\u65e0\u6545
p2168
L2166L
sV\u8fbe
p2169
L2167L
sV\u6d88\u8d39\u8005
p2170
L2168L
sV\u8f93\u9519
p2171
L2169L
sV\u5bc6\u5ea6
p2172
L2170L
sV\u660e\u7ec6\u8d26
p2173
L2171L
sV\u989d\u989d
p2174
L2172L
sV\u8f6c\u51fa
p2175
L2173L
sV\u8d8a\u591a
p2176
L2174L
sV\u5692
p2177
L2175L
sV\u4f7f\u7528\u6743
p2178
L2176L
sV\u884c\u4e3a
p2179
L2177L
sV\u4f4e\u4e8e
p2180
L2178L
sV\u6536\u94f6\u53f0
p2181
L2179L
sV\u4e07\u4e94
p2182
L2180L
sV\u524d\u63d0
p2183
L2181L
sV\u5355\u65e5
p2184
L2182L
sV\u957f\u671f\u501f\u6b3e
p2185
L2183L
sV\u80fd\u6da8
p2186
L2184L
sV\u6b3e\u4f1a
p2187
L2185L
sV\u94f6
p2188
L2186L
sV\u600e\u9ebc
p2189
L2187L
sV\u6dd8\u6c14
p2190
L2188L
sV\u6362\u5b8c
p2191
L2189L
sV\u5b89\u88c5
p2192
L2190L
sV\u4e8c\u6708\u4efd
p2193
L2191L
sV\u6709\u7ebf\u7535\u89c6
p2194
L2192L
sV\u4fdd\u8bc1
p2195
L2193L
sV\u516d
p2196
L2194L
sV\u5f71
p2197
L2195L
sV\u540c\u6b65
p2198
L2196L
sV\u79fb
p2199
L2197L
sV\u6709\u4e8b
p2200
L2198L
sV\u80af\u5fb7\u57fa
p2201
L2199L
sV\u5343\u591a
p2202
L2200L
sV\u6761
p2203
L2201L
sV\u9650
p2204
L2202L
sV\u94b1\u7528
p2205
L2203L
sV\u6b65\u9aa4
p2206
L2204L
sV\u7f51\u94f6
p2207
L2205L
sV\u53d8\u77ed
p2208
L2206L
sV\u8bb2
p2209
L2207L
sV\u8054\u901a
p2210
L2208L
sV\u62ff\u6765
p2211
L2209L
sV\u5b98\u7f51
p2212
L2210L
sV\u7528\u82b1
p2213
L2211L
sV\u7684\u672a
p2214
L2212L
sV\u771f\u5b9e
p2215
L2213L
sV\u7559
p2216
L2214L
sV\u5de5\u5546\u94f6\u884c
p2217
L2215L
sV\u4efd
p2218
L2216L
sV\u643a\u7a0b
p2219
L2217L
sV\u6536\u83b7
p2220
L2218L
sV\u4ef6
p2221
L2219L
sV\u9650\u5b9a
p2222
L2220L
sV\u76f8\u5f53\u4e8e
p2223
L2221L
sV\u6821\u9a8c\u7801
p2224
L2222L
sV\u51e0\u767e
p2225
L2223L
sV\u5c01\u53f7
p2226
L2224L
sV\u8fc7\u7a0b
p2227
L2225L
sV\u70ed\u7ebf
p2228
L2226L
sV\u5b9a\u65f6
p2229
L2227L
sV\u9ea6\u5f53\u52b3
p2230
L2228L
sV\u6212\u5907
p2231
L2229L
sV\u96be
p2232
L2230L
sVy
p2233
L2231L
sV\u5bf9\u8d26
p2234
L2232L
sV\u53cd
p2235
L2233L
sV\u4f1a\u957f
p2236
L2234L
sV\u5bb6\u4eba
p2237
L2235L
sV\u6e05\u7a7a
p2238
L2236L
sV\u8681
p2239
L2237L
sV\u8682
p2240
L2238L
sV\u8d2d\u623f
p2241
L2239L
sV\u5bb6\u7535
p2242
L2240L
sV\u4fbf\u5b9c
p2243
L2241L
sV\u4e09\u7b14
p2244
L2242L
sV\u7a7a\u767d
p2245
L2243L
sV\u767e\u591a
p2246
L2244L
sV\u65f6\u671f
p2247
L2245L
sV\u4e70\u70b9
p2248
L2246L
sV\u8fc7\u4e0d\u53bb
p2249
L2247L
sV\u4e0a\u4f1a
p2250
L2248L
sV\u4ee5\u5916
p2251
L2249L
sV\u5e38
p2252
L2250L
sV\u7eb8\u8d28
p2253
L2251L
sV\u68c0\u6d4b
p2254
L2252L
sV\u540d
p2255
L2253L
sV\u7528\u4f1a
p2256
L2254L
sV\u5341\u4e00\u6708\u4efd
p2257
L2255L
sV\u501f\u70b9
p2258
L2256L
sV\u63d0\u9519
p2259
L2257L
sV\u4e00\u5343\u5143
p2260
L2258L
sV\u4e8b\u60c5
p2261
L2259L
sV\u8fd9\u9879
p2262
L2260L
sV\u4e2a\u4eba\u8d44\u6599
p2263
L2261L
sV\u5148\u7528
p2264
L2262L
sV\u7406\u89e3
p2265
L2263L
sV\u5148\u6263
p2266
L2264L
sV\u6821\u9a8c
p2267
L2265L
sV\u6559
p2268
L2266L
sV\u6700\u5c0f
p2269
L2267L
sV\u4e5d\u671f
p2270
L2268L
sV\u4e07\u4e00
p2271
L2269L
sV\u51e0\u5341\u5757
p2272
L2270L
sV\u91cc\u5934
p2273
L2271L
sV\u70b9\u5361
p2274
L2272L
sV\u9a6c\u8681
p2275
L2273L
sV\u597d\u4e0d\u597d
p2276
L2274L
sV\u574f\u5904
p2277
L2275L
sV\u9884\u4ed8\u6b3e
p2278
L2276L
sV\u5173\u4e0a
p2279
L2277L
sV\u4e00\u4e07\u5143
p2280
L2278L
sV\u641e\u4e0d\u61c2
p2281
L2279L
sV\u516d\u767e\u591a
p2282
L2280L
sV\u6027\u8d28
p2283
L2281L
sV\u5206\u4f1a
p2284
L2282L
sV\u5165\u4f4f
p2285
L2283L
sV\u9519\u8fc7
p2286
L2284L
sV\u82b1\u575d
p2287
L2285L
sVo
p2288
L2286L
sV\u4e0a\u8fb9
p2289
L2287L
sV\u514d\u606f\u671f
p2290
L2288L
sV\u4f4d\u7f6e
p2291
L2289L
sV\u8d76\u7d27
p2292
L2290L
sV\u8d26\u662f
p2293
L2291L
sV\u9000\u4e48
p2294
L2292L
sV\u4e0a\u4e48
p2295
L2293L
sV\u80fd\u5237
p2296
L2294L
sV\u6570\u5b57
p2297
L2295L
sV\u5012
p2298
L2296L
sV\u7533
p2299
L2297L
sV\u5de5\u4f5c\u65e5
p2300
L2298L
sV\u4e0d\u52a8
p2301
L2299L
sV\u51e0\u79cd
p2302
L2300L
sV\uff05
p2303
L2301L
sV\u591a\u7b14
p2304
L2302L
sV\u8c03\u8282
p2305
L2303L
sV\u8611\u83c7
p2306
L2304L
sV\u79df\u673a
p2307
L2305L
sV\u5c0f\u5e97
p2308
L2306L
sV\u8d26\u6b3e
p2309
L2307L
sV\u519c\u5546
p2310
L2308L
sV\u6ca1\u5145
p2311
L2309L
sV\u83ab\u540d
p2312
L2310L
sV\u5237\u5361
p2313
L2311L
sV\u6728
p2314
L2312L
sVma
p2315
L2313L
sV\u89e3\u9501
p2316
L2314L
sV\u7ed9\u5173
p2317
L2315L
sV\u8865\u529e
p2318
L2316L
sV\u8d35
p2319
L2317L
sV\u5824
p2320
L2318L
sV\u72b6\u51b5
p2321
L2319L
sV\u4e24\u79cd
p2322
L2320L
sV\u6700\u65b0
p2323
L2321L
sV\u6ca1\u7ed1
p2324
L2322L
sV\u662f\u5426\u662f
p2325
L2323L
sV\u6211\u4e00
p2326
L2324L
sV\u9501\u5b9a
p2327
L2325L
sV\u9884\u8ba2
p2328
L2326L
sV\u5e97\u4e3b
p2329
L2327L
sV\u80a1\u7968
p2330
L2328L
sV\u51ed\u8bc1
p2331
L2329L
sV\u7528\u6709
p2332
L2330L
sV\u5c3d\u5feb
p2333
L2331L
sV\u6c92
p2334
L2332L
sV\u5bf9\u4e8e
p2335
L2333L
sV\u6709\u65e0
p2336
L2334L
sV\u7528\u4e0d\u4e0a
p2337
L2335L
sV\u54ea\u5bb6
p2338
L2336L
sV\u8def
p2339
L2337L
sV\u65e5\u540e
p2340
L2338L
sV\u70ba
p2341
L2339L
sV\u5230\u671f\u65e5
p2342
L2340L
sV\u4e5d
p2343
L2341L
sV\u8be6\u5355
p2344
L2342L
sV\u7528\u80fd
p2345
L2343L
sV\u5f53\u521d
p2346
L2344L
sV\u51e0\u767e\u5757
p2347
L2345L
sV\u540e\u672c
p2348
L2346L
sV\u6570\u636e
p2349
L2347L
sV\u7684\u5bf9
p2350
L2348L
sV\u6709\u7528\u5417
p2351
L2349L
sV\u5bf9\u4e86
p2352
L2350L
sV\u53d8\u9ad8
p2353
L2351L
sV\u8fde\u63a5
p2354
L2352L
sV\u8d37\u6b3e\u989d\u5ea6
p2355
L2353L
sV\u6c38\u4e45\u6027
p2356
L2354L
sV\u7b14\u6b3e
p2357
L2355L
sV\u79fb\u5230
p2358
L2356L
sV\u7528\u7528
p2359
L2357L
sV\u6c38
p2360
L2358L
sV\u8dd1
p2361
L2359L
sV\u56db\u767e\u591a
p2362
L2360L
sV\u5361\u80fd\u7528
p2363
L2361L
sV\u5b8c\u4e48
p2364
L2362L
sV\u6ee1\u610f
p2365
L2363L
sV\u5bc6\u4ed8\u4e48
p2366
L2364L
sV\u5b58\u6b3e
p2367
L2365L
sV\u8981\u9000
p2368
L2366L
sV\u54b1\u4eec
p2369
L2367L
sV\u9ad8\u4e8e
p2370
L2368L
sV\u6d77\u5916
p2371
L2369L
sV\u60f3\u9000
p2372
L2370L
sV\u4ed8\u51fa
p2373
L2371L
sV\u793c
p2374
L2372L
sV\u9650\u671f
p2375
L2373L
sV\u603b\u4e48
p2376
L2374L
sV\u4f1a\u7b97
p2377
L2375L
sV\u96c6
p2378
L2376L
sV\u65e0\u9650
p2379
L2377L
sV\u88e4\u5b50
p2380
L2378L
sV\u770b\u51fa
p2381
L2379L
sV\u5148\u4ed8
p2382
L2380L
sV\u6cb9\u5361
p2383
L2381L
sV\u7406\u8d54
p2384
L2382L
sV\u53ef\u5206
p2385
L2383L
sV\u9910
p2386
L2384L
sV\u51fd
p2387
L2385L
sV\u501f\u4e0b
p2388
L2386L
sV]
p2389
L2387L
sV\u8d2d\u7968
p2390
L2388L
sV\u54b1
p2391
L2389L
sV\u5de5\u5546
p2392
L2390L
sV\u964d\u606f
p2393
L2391L
sV\u52a8
p2394
L2392L
sV\u4e24\u767e\u591a
p2395
L2393L
sV\u501f\u7ed9
p2396
L2394L
sV\u641c\u7d22
p2397
L2395L
sV\u5c0f\u7c73
p2398
L2396L
sV\u56db\u4e2a
p2399
L2397L
sV\u76f8\u540c
p2400
L2398L
sV\u5916\u90e8
p2401
L2399L
sV\u4e2d\u5fc3
p2402
L2400L
sV\u7f51\u6613
p2403
L2401L
sV\u4e03\u5341
p2404
L2402L
sV\u672a\u51fa
p2405
L2403L
sV\u8d2d\u7269\u5238
p2406
L2404L
sV\u5583
p2407
L2405L
sV\u8ffd\u56de
p2408
L2406L
sV\u79df\u8f66
p2409
L2407L
sV\u52a9\u5b66
p2410
L2408L
sV\u8bd5\u8bd5
p2411
L2409L
sV\u4e94\u4e07
p2412
L2410L
sV\u6709\u4e48
p2413
L2411L
sV\u540d\u989d
p2414
L2412L
sV\u672c\u8eab
p2415
L2413L
sV\u5212
p2416
L2414L
sV\u62db\u8054
p2417
L2415L
sV\u516d\u53f7
p2418
L2416L
sV\u4e0a\u6709
p2419
L2417L
sV\u8def\u5f84
p2420
L2418L
sV\u6574\u4e48
p2421
L2419L
sV\u8d44\u8d28
p2422
L2420L
sV\u6570\u76ee
p2423
L2421L
sV\u5df3
p2424
L2422L
sV\u5f39\u51fa
p2425
L2423L
sV\u53bb\u9664
p2426
L2424L
sV\u5f00\u4e0d\u8d77
p2427
L2425L
sV\u4e00\u4e0d\u5c0f\u5fc3
p2428
L2426L
sV\u6c47\u7387
p2429
L2427L
sV\u6ca1\u957f
p2430
L2428L
sV\u8fd4\u4f63
p2431
L2429L
sV\u5173\u505c
p2432
L2430L
sV\u9886\u5230
p2433
L2431L
sV\u8ba2\u673a\u7968
p2434
L2432L
sV\u4f59
p2435
L2433L
sV\u4f1a\u4e0a
p2436
L2434L
sV\u6c38\u548c
p2437
L2435L
sV\u6ede\u7eb3\u91d1
p2438
L2436L
sV\u4e8c\u7ef4
p2439
L2437L
sV\u4e2d\u9014
p2440
L2438L
sV\u57ab\u4ed8
p2441
L2439L
sV\u9996
p2442
L2440L
sV\u6025\u9700
p2443
L2441L
sV\u6613\u8d2d
p2444
L2442L
sV\u5373\u4f7f
p2445
L2443L
sV\u5b9e
p2446
L2444L
sV\u9996\u6b3e
p2447
L2445L
sV\u89e3\u91ca
p2448
L2446L
sV\u53c2\u4e0e
p2449
L2447L
sV\u81ea\u884c\u8f66
p2450
L2448L
sV\u5145\u8db3
p2451
L2449L
sV\u4f18\u52bf
p2452
L2450L
sV\u53d8\u5c0f
p2453
L2451L
sV\u516d\u5929
p2454
L2452L
sV\u8d1f\u503c
p2455
L2453L
sV\u8001\u5a46
p2456
L2454L
sV\u5468\u672b
p2457
L2455L
sV\u591a\u6708
p2458
L2456L
sV\u540e\u53f0
p2459
L2457L
sV\u4e94\u4e2a
p2460
L2458L
sV\u591a\u5929
p2461
L2459L
sV\u8fd4\u5230
p2462
L2460L
sVqqcom
p2463
L2461L
sV\u4e0d\u6765
p2464
L2462L
sV\u5904\u4e8e
p2465
L2463L
sV\u63a5\u89e6
p2466
L2464L
sV\u5230\u8fbe
p2467
L2465L
sV\u4ea4\u94b1
p2468
L2466L
sV\u5176\u4f59
p2469
L2467L
sV\u80fd\u529e
p2470
L2468L
sV\u4e2d\u95f4
p2471
L2469L
sV\u600e\u529e
p2472
L2470L
sV\u4fe9
p2473
L2471L
sV\u5ef6\u7f13
p2474
L2472L
sV\u4e86\u5bf9
p2475
L2473L
sV\u4ee3\u66ff
p2476
L2474L
sV\u6362\u8fc7\u6765
p2477
L2475L
sV\u516b\u767e\u591a
p2478
L2476L
sV\u8fd9\u6837\u7684\u8bdd
p2479
L2477L
sV\u4e2a\u4eba\u8d26\u6237
p2480
L2478L
sV\u4e0d\u660e
p2481
L2479L
sV\u5c31\u7528
p2482
L2480L
sV\u8bc1\u4e66
p2483
L2481L
sV\u65f6\u4faf
p2484
L2482L
sV\u7406\u8d22
p2485
L2483L
sV\u65f6\u95f4\u6bb5
p2486
L2484L
sV\u53d7\u5230\u9650\u5236
p2487
L2485L
sV\u8682\u8681\u91d1\u670d
p2488
L2486L
sV\u4e07\u591a
p2489
L2487L
sV\u5e74\u524d
p2490
L2488L
sV\u6309\u63ed
p2491
L2489L
sV\u7b2c\u4e8c
p2492
L2490L
sV\u4e0d\u9000
p2493
L2491L
sV\u7f51\u5740
p2494
L2492L
sV\u4e8c\u5341
p2495
L2493L
sV\u7f51\u4e0a\u94f6\u884c
p2496
L2494L
sV\u81f3\u5c11
p2497
L2495L
sV\u9884
p2498
L2496L
sV\u5168\u6c11
p2499
L2497L
sV\u8981\u7d27
p2500
L2498L
sV\u88ab\u76d7
p2501
L2499L
s.